libvisp.so.2 libvisp2 #MINVER#
 Matrix_to_Position@Base 2.6.2-1
 Matrix_to_Rotate@Base 2.6.2-1
 Position_to_Matrix@Base 2.6.2-1
 Rotate_to_Matrix@Base 2.6.2-1
 Rotaxis_to_Matrix@Base 2.6.2-1
 Rotrans_to_Matrix@Base 2.6.2-1
 Scale_to_Matrix@Base 2.6.2-1
 Translate_to_Matrix@Base 2.6.2-1
 View_to_Matrix@Base 2.6.2-1
 _Z10buildPlaneR7vpPointS0_S0_R7vpPlane@Base 2.6.2-1
 _Z10destroyIfsRSt4listIP12indexFaceSetSaIS1_EE@Base 2.6.2-1
 _Z10ifsToBoundP5BoundRSt4listIP12indexFaceSetSaIS3_EE@Base 2.6.2-1
 _Z10iscolinearPdS_S_@Base 2.6.2-1
 _Z11changeFramePjjR8vpMatrixS1_S1_S1_S1_S1_@Base 2.6.2-1
 _Z12computeDeltaRdiiii@Base 2.6.2-1
 _Z12computeDeltadd@Base 2.6.2-1
 _Z12computeThetaRdR11vpColVector12vpImagePoint@Base 2.6.2-1
 _Z12extractFacesP20SoVRMLIndexedFaceSetP12indexFaceSet@Base 2.6.2-1
 _Z12getExtensionPKc@Base 2.6.2-1
 _Z13eval_functioniPdS_@Base 2.6.2-1
 _Z13set_scene_wrlPKcP11Bound_scenef@Base 2.6.2-1
 _Z13vp2jlc_matrix19vpHomogeneousMatrixRA4_A4_f@Base 2.6.2-1
 _Z14getGrid3DPointdR12vpImagePointS0_S0_S0_@Base 2.6.2-1
 _Z15findCenterPointP6vpListI12vpImagePointE@Base 2.6.2-1
 _Z15findCenterPointPSt4listI12vpImagePointSaIS0_EE@Base 2.6.2-1
 _Z15findFirstBorderRK7vpImageIhERK12vpImagePoint@Base 2.6.2-1
 _Z17laFonctionSansNomd@Base 2.6.2-1
 _Z20naiveNearestNeighborPKfPK5CvSeqS3_@Base 2.6.2-1
 _Z20naiveNearestNeighborPKfiPK5CvSeqS3_@Base 2.6.2-1
 _Z22compareSURFDescriptorsPKfS0_di@Base 2.6.2-1
 _Z23compare_vpHistogramPeak15vpHistogramPeakS_@Base 2.6.2-1
 _Z3HLMjjPdS_S_S_R8vpMatrix@Base 2.6.2-1
 _Z3fcniiPdS_S_ii@Base 2.6.2-1
 _Z5HLM2DjR8vpMatrixS0_S0_@Base 2.6.2-1
 _Z5HLM3DjR8vpMatrixS0_S0_@Base 2.6.2-1
 _Z5enormPKdi@Base 2.6.2-1
 _Z5lmderPFviiPdS_S_iiEiiS_S_S_idddjS_idiPiPjS2_S2_S_S_S_S_S_@Base 2.6.2-1
 _Z5lmpariPdiPiS_S_S_S_S_S_S_S_@Base 2.6.2-1
 _Z5qrfaciiPdiPiS0_iS_S_S_@Base 2.6.2-1
 _Z6lmder1PFviiPdS_S_iiEiiS_S_S_idPiS2_iS_@Base 2.6.2-1
 _Z6pythagdd@Base 2.6.2-1
 _Z6qrsolviPdiPiS_S_S_S_S_@Base 2.6.2-1
 _Z8subblockRK8vpMatrixjj@Base 2.6.2-1
 _Z9buildLineR7vpPointS0_S0_S0_R6vpLine@Base 2.6.2-1
 _Z9findAngleRK7vpImageIhERK12vpImagePointP4vpMeRdS8_@Base 2.6.2-1
 _Z9findPairsPK5CvSeqS1_S1_S1_RSt6vectorIiSaIiEE@Base 2.6.2-1
 _Z9samePointRK7vpPointS1_d@Base 2.6.2-1
 _Z9set_scenePKcP11Bound_scenef@Base 2.6.2-1
 _ZN10vpCylinder10projectionERK11vpColVectorRS0_@Base 2.6.2-1
 _ZN10vpCylinder10projectionEv@Base 2.6.2-1
 _ZN10vpCylinder11changeFrameERK19vpHomogeneousMatrix@Base 2.6.2-1
 _ZN10vpCylinder11changeFrameERK19vpHomogeneousMatrixR11vpColVector@Base 2.6.2-1
 _ZN10vpCylinder19setWorldCoordinatesERK11vpColVector@Base 2.6.2-1
 _ZN10vpCylinder19setWorldCoordinatesEddddddd@Base 2.6.2-1
 _ZN10vpCylinder4initEv@Base 2.6.2-1
 _ZN10vpCylinder7displayERK7vpImageIhERK18vpCameraParametersRK7vpColorj@Base 2.6.2-1
 _ZN10vpCylinder7displayERK7vpImageIhERK19vpHomogeneousMatrixRK18vpCameraParametersRK7vpColorj@Base 2.6.2-1
 _ZN10vpCylinderC1ERK11vpColVector@Base 2.6.2-1
 _ZN10vpCylinderC1Eddddddd@Base 2.6.2-1
 _ZN10vpCylinderC1Ev@Base 2.6.2-1
 _ZN10vpCylinderC2ERK11vpColVector@Base 2.6.2-1
 _ZN10vpCylinderC2Eddddddd@Base 2.6.2-1
 _ZN10vpCylinderC2Ev@Base 2.6.2-1
 _ZN10vpCylinderD0Ev@Base 2.6.2-1
 _ZN10vpCylinderD1Ev@Base 2.6.2-1
 _ZN10vpCylinderD2Ev@Base 2.6.2-1
 _ZN10vpDisplayX10getClickUpER12vpImagePointRN13vpMouseButton17vpMouseButtonTypeEb@Base 2.6.2-1
 _ZN10vpDisplayX11displayLineERK12vpImagePointS2_RK7vpColorj@Base 2.6.2-1
 _ZN10vpDisplayX12clearDisplayERK7vpColor@Base 2.6.2-1
 _ZN10vpDisplayX12closeDisplayEv@Base 2.6.2-1
 _ZN10vpDisplayX12displayArrowERK12vpImagePointS2_RK7vpColorjjj@Base 2.6.2-1
 _ZN10vpDisplayX12displayCrossERK12vpImagePointjRK7vpColorj@Base 2.6.2-1
 _ZN10vpDisplayX12displayImageEPKh@Base 2.6.2-1
 _ZN10vpDisplayX12displayImageERK7vpImageI6vpRGBaE@Base 2.6.2-1
 _ZN10vpDisplayX12displayImageERK7vpImageIhE@Base 2.6.2-1
 _ZN10vpDisplayX12displayPointERK12vpImagePointRK7vpColor@Base 2.6.2-1
 _ZN10vpDisplayX12flushDisplayEv@Base 2.6.2-1
 _ZN10vpDisplayX13displayCircleERK12vpImagePointjRK7vpColorbj@Base 2.6.2-1
 _ZN10vpDisplayX13getScreenSizeERjS0_@Base 2.6.2-1
 _ZN10vpDisplayX14displayDotLineERK12vpImagePointS2_RK7vpColorj@Base 2.6.2-1
 _ZN10vpDisplayX14getScreenDepthEv@Base 2.6.2-1
 _ZN10vpDisplayX15displayImageROIERK7vpImageI6vpRGBaERK12vpImagePointjj@Base 2.6.2-1
 _ZN10vpDisplayX15displayImageROIERK7vpImageIhERK12vpImagePointjj@Base 2.6.2-1
 _ZN10vpDisplayX15flushDisplayROIERK12vpImagePointjj@Base 2.6.2-1
 _ZN10vpDisplayX16displayRectangleERK12vpImagePointS2_RK7vpColorbj@Base 2.6.2-1
 _ZN10vpDisplayX16displayRectangleERK12vpImagePointjjRK7vpColorbj@Base 2.6.2-1
 _ZN10vpDisplayX16displayRectangleERK6vpRectRK7vpColorbj@Base 2.6.2-1
 _ZN10vpDisplayX16getKeyboardEventEPcb@Base 2.6.2-1
 _ZN10vpDisplayX16getKeyboardEventEb@Base 2.6.2-1
 _ZN10vpDisplayX17displayCharStringERK12vpImagePointPKcRK7vpColor@Base 2.6.2-1
 _ZN10vpDisplayX17setWindowPositionEii@Base 2.6.2-1
 _ZN10vpDisplayX18getPointerPositionER12vpImagePoint@Base 2.6.2-1
 _ZN10vpDisplayX21getPointerMotionEventER12vpImagePoint@Base 2.6.2-1
 _ZN10vpDisplayX4initER7vpImageI6vpRGBaEiiPKc@Base 2.6.2-1
 _ZN10vpDisplayX4initER7vpImageIhEiiPKc@Base 2.6.2-1
 _ZN10vpDisplayX4initEjjiiPKc@Base 2.6.2-1
 _ZN10vpDisplayX7setFontEPKc@Base 2.6.2-1
 _ZN10vpDisplayX8getClickER12vpImagePointRN13vpMouseButton17vpMouseButtonTypeEb@Base 2.6.2-1
 _ZN10vpDisplayX8getClickER12vpImagePointb@Base 2.6.2-1
 _ZN10vpDisplayX8getClickEb@Base 2.6.2-1
 _ZN10vpDisplayX8getImageER7vpImageI6vpRGBaE@Base 2.6.2-1
 _ZN10vpDisplayX8setTitleEPKc@Base 2.6.2-1
 _ZN10vpDisplayXC1ER7vpImageI6vpRGBaEiiPKc@Base 2.6.2-1
 _ZN10vpDisplayXC1ER7vpImageIhEiiPKc@Base 2.6.2-1
 _ZN10vpDisplayXC1EiiPKc@Base 2.6.2-1
 _ZN10vpDisplayXC1Ev@Base 2.6.2-1
 _ZN10vpDisplayXC2ER7vpImageI6vpRGBaEiiPKc@Base 2.6.2-1
 _ZN10vpDisplayXC2ER7vpImageIhEiiPKc@Base 2.6.2-1
 _ZN10vpDisplayXC2EiiPKc@Base 2.6.2-1
 _ZN10vpDisplayXC2Ev@Base 2.6.2-1
 _ZN10vpDisplayXD0Ev@Base 2.6.2-1
 _ZN10vpDisplayXD1Ev@Base 2.6.2-1
 _ZN10vpDisplayXD2Ev@Base 2.6.2-1
 _ZN10vpKeyboard10setRawModeEb@Base 2.6.2-1
 _ZN10vpKeyboard3endEv@Base 2.6.2-1
 _ZN10vpKeyboard4initEv@Base 2.6.2-1
 _ZN10vpKeyboard5kbhitEv@Base 2.6.2-1
 _ZN10vpKeyboard7getcharEv@Base 2.6.2-1
 _ZN10vpKeyboardC1Ev@Base 2.6.2-1
 _ZN10vpKeyboardC2Ev@Base 2.6.2-1
 _ZN10vpKeyboardD1Ev@Base 2.6.2-1
 _ZN10vpKeyboardD2Ev@Base 2.6.2-1
 _ZN10vpTriangle10inTriangleERK12vpImagePointd@Base 2.6.2-1
 _ZN10vpTriangle4initERK12vpImagePointS2_S2_@Base 2.6.2-1
 _ZN10vpTriangle9buildFromERK12vpImagePointS2_S2_@Base 2.6.2-1
 _ZN10vpTriangleC1ERK12vpImagePointS2_S2_@Base 2.6.2-1
 _ZN10vpTriangleC1ERKS_@Base 2.6.2-1
 _ZN10vpTriangleC1Ev@Base 2.6.2-1
 _ZN10vpTriangleC2ERK12vpImagePointS2_S2_@Base 2.6.2-1
 _ZN10vpTriangleC2ERKS_@Base 2.6.2-1
 _ZN10vpTriangleC2Ev@Base 2.6.2-1
 _ZN10vpTriangleD0Ev@Base 2.6.2-1
 _ZN10vpTriangleD1Ev@Base 2.6.2-1
 _ZN10vpTriangleD2Ev@Base 2.6.2-1
 _ZN10vpTriangleaSERKS_@Base 2.6.2-1
 _ZN10vpViper85011defaultToolE@Base 2.6.2-1
 _ZN10vpViper85019getCameraParametersER18vpCameraParametersRK7vpImageI6vpRGBaE@Base 2.6.2-1
 _ZN10vpViper85019getCameraParametersER18vpCameraParametersRK7vpImageIhE@Base 2.6.2-1
 _ZN10vpViper85019getCameraParametersER18vpCameraParametersRKjS3_@Base 2.6.2-1
 _ZN10vpViper85025CONST_GENERIC_CAMERA_NAMEE@Base 2.6.2-1
 _ZN10vpViper85030CONST_MARLIN_F033C_CAMERA_NAMEE@Base 2.6.2-1
 _ZN10vpViper85030CONST_PTGREY_FLEA2_CAMERA_NAMEE@Base 2.6.2-1
 _ZN10vpViper85032CONST_SCHUNK_GRIPPER_CAMERA_NAMEE@Base 2.6.2-1
 _ZN10vpViper8504initENS_10vpToolTypeEN18vpCameraParameters26vpCameraParametersProjTypeE@Base 2.6.2-1
 _ZN10vpViper8504initEv@Base 2.6.2-1
 _ZN10vpViper850C1Ev@Base 2.6.2-1
 _ZN10vpViper850C2Ev@Base 2.6.2-1
 _ZN10vpViper850D0Ev@Base 2.6.2-1
 _ZN10vpViper850D1Ev@Base 2.6.2-1
 _ZN10vpViper850D2Ev@Base 2.6.2-1
 _ZN11vpColVector4meanERKS_@Base 2.6.2-1
 _ZN11vpColVector4skewERKS_@Base 2.6.2-1
 _ZN11vpColVector4sortERKS_@Base 2.6.2-1
 _ZN11vpColVector5stackERKS_@Base 2.6.2-1
 _ZN11vpColVector5stackERKS_S1_@Base 2.6.2-1
 _ZN11vpColVector5stackERKS_S1_RS_@Base 2.6.2-1
 _ZN11vpColVector6medianERKS_@Base 2.6.2-1
 _ZN11vpColVector7dotProdERKS_S1_@Base 2.6.2-1
 _ZN11vpColVector7invSortERKS_@Base 2.6.2-1
 _ZN11vpColVector7reshapeER8vpMatrixRKjS3_@Base 2.6.2-1
 _ZN11vpColVector7reshapeERKjS1_@Base 2.6.2-1
 _ZN11vpColVector9crossProdERKS_S1_@Base 2.6.2-1
 _ZN11vpColVector9normalizeEv@Base 2.6.2-1
 _ZN11vpColVectorC1ER8vpMatrixj@Base 2.6.2-1
 _ZN11vpColVectorC1ERK16vpRotationVector@Base 2.6.2-1
 _ZN11vpColVectorC1ERKS_@Base 2.6.2-1
 _ZN11vpColVectorC1ERS_jj@Base 2.6.2-1
 _ZN11vpColVectorC2ER8vpMatrixj@Base 2.6.2-1
 _ZN11vpColVectorC2ERK16vpRotationVector@Base 2.6.2-1
 _ZN11vpColVectorC2ERKS_@Base 2.6.2-1
 _ZN11vpColVectorC2ERS_jj@Base 2.6.2-1
 _ZN11vpColVectorD0Ev@Base 2.6.2-1
 _ZN11vpColVectorD1Ev@Base 2.6.2-1
 _ZN11vpColVectorD2Ev@Base 2.6.2-1
 _ZN11vpColVectoraSERK8vpMatrix@Base 2.6.2-1
 _ZN11vpColVectoraSERKS_@Base 2.6.2-1
 _ZN11vpColVectoraSEd@Base 2.6.2-1
 _ZN11vpColVectorlsEPd@Base 2.6.2-1
 _ZN11vpColVectorlsERKS_@Base 2.6.2-1
 _ZN11vpColVectorngEv@Base 2.6.2-1
 _ZN11vpException10getMessageEv@Base 2.6.2-1
 _ZN11vpException16getStringMessageEv@Base 2.6.2-1
 _ZN11vpException7getCodeEv@Base 2.6.2-1
 _ZN11vpExceptionC1ERKS_@Base 2.6.2-1
 _ZN11vpExceptionC1Ei@Base 2.6.2-1
 _ZN11vpExceptionC1EiPKc@Base 2.6.2-1
 _ZN11vpExceptionC1EiRKSs@Base 2.6.2-1
 _ZN11vpExceptionC2ERKS_@Base 2.6.2-1
 _ZN11vpExceptionC2Ei@Base 2.6.2-1
 _ZN11vpExceptionC2EiPKc@Base 2.6.2-1
 _ZN11vpExceptionC2EiRKSs@Base 2.6.2-1
 _ZN11vpExceptionD0Ev@Base 2.6.2-1
 _ZN11vpExceptionD1Ev@Base 2.6.2-1
 _ZN11vpExceptionD2Ev@Base 2.6.2-1
 _ZN11vpGaussRand12gaussianDrawEv@Base 2.6.2-1
 _ZN11vpHistogram4initEj@Base 2.6.2-1
 _ZN11vpHistogram4sortER6vpListI15vpHistogramPeakE@Base 2.6.2-1
 _ZN11vpHistogram4sortERSt4listI15vpHistogramPeakSaIS1_EE@Base 2.6.2-1
 _ZN11vpHistogram5writeEPKc@Base 2.6.2-1
 _ZN11vpHistogram5writeERKSs@Base 2.6.2-1
 _ZN11vpHistogram6smoothEj@Base 2.6.2-1
 _ZN11vpHistogram8getPeaksER6vpListI15vpHistogramPeakE@Base 2.6.2-1
 _ZN11vpHistogram8getPeaksERSt4listI15vpHistogramPeakSaIS1_EE@Base 2.6.2-1
 _ZN11vpHistogram8getPeaksEhR15vpHistogramPeakS1_@Base 2.6.2-1
 _ZN11vpHistogram8getPeaksEhR15vpHistogramPeakS1_R16vpHistogramValey@Base 2.6.2-1
 _ZN11vpHistogram8getValeyER6vpListI16vpHistogramValeyE@Base 2.6.2-1
 _ZN11vpHistogram8getValeyERK15vpHistogramPeakS2_R16vpHistogramValey@Base 2.6.2-1
 _ZN11vpHistogram8getValeyERSt4listI16vpHistogramValeySaIS1_EE@Base 2.6.2-1
 _ZN11vpHistogram8getValeyEhRK15vpHistogramPeakR16vpHistogramValeyS4_@Base 2.6.2-1
 _ZN11vpHistogram9calculateERK7vpImageIhE@Base 2.6.2-1
 _ZN11vpHistogramC1ERK7vpImageIhE@Base 2.6.2-1
 _ZN11vpHistogramC1ERKS_@Base 2.6.2-1
 _ZN11vpHistogramC1Ev@Base 2.6.2-1
 _ZN11vpHistogramC2ERK7vpImageIhE@Base 2.6.2-1
 _ZN11vpHistogramC2ERKS_@Base 2.6.2-1
 _ZN11vpHistogramC2Ev@Base 2.6.2-1
 _ZN11vpHistogramD0Ev@Base 2.6.2-1
 _ZN11vpHistogramD1Ev@Base 2.6.2-1
 _ZN11vpHistogramD2Ev@Base 2.6.2-1
 _ZN11vpHistogramaSERKS_@Base 2.6.2-1
 _ZN11vpKltOpencv10addFeatureERKiRKfS3_@Base 2.6.2-1
 _ZN11vpKltOpencv12initTrackingEPK9_IplImageS2_@Base 2.6.2-1
 _ZN11vpKltOpencv14setMaxFeaturesEi@Base 2.6.2-1
 _ZN11vpKltOpencv15suppressFeatureEi@Base 2.6.2-1
 _ZN11vpKltOpencv5cleanEv@Base 2.6.2-1
 _ZN11vpKltOpencv5resetEv@Base 2.6.2-1
 _ZN11vpKltOpencv5trackEPK9_IplImage@Base 2.6.2-1
 _ZN11vpKltOpencv7displayERK7vpImageIhE7vpColor@Base 2.6.2-1
 _ZN11vpKltOpencv7displayERK7vpImageIhEPK12CvPoint2D32fPKlRKi7vpColorj@Base 2.6.2-1
 _ZN11vpKltOpencv7displayERK7vpImageIhEPK12CvPoint2D32fRKi7vpColorj@Base 2.6.2-1
 _ZN11vpKltOpencv8cleanAllEv@Base 2.6.2-1
 _ZN11vpKltOpencvC1ERKS_@Base 2.6.2-1
 _ZN11vpKltOpencvC1Ev@Base 2.6.2-1
 _ZN11vpKltOpencvC2ERKS_@Base 2.6.2-1
 _ZN11vpKltOpencvC2Ev@Base 2.6.2-1
 _ZN11vpKltOpencvD0Ev@Base 2.6.2-1
 _ZN11vpKltOpencvD1Ev@Base 2.6.2-1
 _ZN11vpKltOpencvD2Ev@Base 2.6.2-1
 _ZN11vpMbTracker10computeJTRERK8vpMatrixRK11vpColVectorRS0_@Base 2.6.2-1
 _ZN11vpMbTracker12extractFacesEP20SoVRMLIndexedFaceSet@Base 2.6.2-1
 _ZN11vpMbTracker12extractLinesEP20SoVRMLIndexedLineSet@Base 2.6.2-1
 _ZN11vpMbTracker12initFromPoseERK7vpImageIhERK12vpPoseVector@Base 2.6.2-1
 _ZN11vpMbTracker12initFromPoseERK7vpImageIhERK19vpHomogeneousMatrix@Base 2.6.2-1
 _ZN11vpMbTracker12initFromPoseERK7vpImageIhERKSs@Base 2.6.2-1
 _ZN11vpMbTracker12loadCAOModelERKSs@Base 2.6.2-1
 _ZN11vpMbTracker13loadVRMLModelERKSs@Base 2.6.2-1
 _ZN11vpMbTracker14initFromPointsERK7vpImageIhERKSs@Base 2.6.2-1
 _ZN11vpMbTracker14initFromPointsERK7vpImageIhERKSt6vectorI12vpImagePointSaIS5_EERKS4_I7vpPointSaISA_EE@Base 2.6.2-1
 _ZN11vpMbTracker16extractCylindersEP20SoVRMLIndexedFaceSet@Base 2.6.2-1
 _ZN11vpMbTracker16getGravityCenterERKSt6vectorI7vpPointSaIS1_EE@Base 2.6.2-1
 _ZN11vpMbTracker19setCameraParametersERK18vpCameraParameters@Base 2.6.2-1
 _ZN11vpMbTracker24setCovarianceComputationERKb@Base 2.6.2-1
 _ZN11vpMbTracker8savePoseERKSs@Base 2.6.2-1
 _ZN11vpMbTracker9initClickERK7vpImageIhERKSsb@Base 2.6.2-1
 _ZN11vpMbTracker9initClickERK7vpImageIhERKSt6vectorI7vpPointSaIS5_EERKSs@Base 2.6.2-1
 _ZN11vpMbTracker9loadModelERKSs@Base 2.6.2-1
 _ZN11vpMbTrackerC1Ev@Base 2.6.2-1
 _ZN11vpMbTrackerC2Ev@Base 2.6.2-1
 _ZN11vpMbTrackerD0Ev@Base 2.6.2-1
 _ZN11vpMbTrackerD1Ev@Base 2.6.2-1
 _ZN11vpMbTrackerD2Ev@Base 2.6.2-1
 _ZN11vpMbtMeLine10findSignalERK7vpImageIhEPK4vpMePd@Base 2.6.2-1
 _ZN11vpMbtMeLine11bubbleSortIEv@Base 2.6.2-1
 _ZN11vpMbtMeLine11bubbleSortJEv@Base 2.6.2-1
 _ZN11vpMbtMeLine11updateDeltaEv@Base 2.6.2-1
 _ZN11vpMbtMeLine12initTrackingERK7vpImageIhERK12vpImagePointS6_dd@Base 2.6.2-1
 _ZN11vpMbtMeLine14setExtremitiesEv@Base 2.6.2-1
 _ZN11vpMbtMeLine14suppressPointsERK7vpImageIhE@Base 2.6.2-1
 _ZN11vpMbtMeLine15seekExtremitiesERK7vpImageIhE@Base 2.6.2-1
 _ZN11vpMbtMeLine16updateParametersERK7vpImageIhE12vpImagePointS4_dd@Base 2.6.2-1
 _ZN11vpMbtMeLine16updateParametersERK7vpImageIhEdd@Base 2.6.2-1
 _ZN11vpMbtMeLine5trackERK7vpImageIhE@Base 2.6.2-1
 _ZN11vpMbtMeLine6sampleERK7vpImageIhE@Base 2.6.2-1
 _ZN11vpMbtMeLine7displayERK7vpImageIhE7vpColor@Base 2.6.2-1
 _ZN11vpMbtMeLine7displayERK7vpImageIhE@Base 2.6.2-1
 _ZN11vpMbtMeLine8reSampleERK7vpImageIhE12vpImagePointS4_@Base 2.6.2-1
 _ZN11vpMbtMeLine8reSampleERK7vpImageIhE@Base 2.6.2-1
 _ZN11vpMbtMeLineC1Ev@Base 2.6.2-1
 _ZN11vpMbtMeLineC2Ev@Base 2.6.2-1
 _ZN11vpMbtMeLineD0Ev@Base 2.6.2-1
 _ZN11vpMbtMeLineD1Ev@Base 2.6.2-1
 _ZN11vpMbtMeLineD2Ev@Base 2.6.2-1
 _ZN11vpMeEllipse11leastSquareEv@Base 2.6.2-1
 _ZN11vpMeEllipse11updateThetaEv@Base 2.6.2-1
 _ZN11vpMeEllipse12computeAngleE12vpImagePointS0_@Base 2.6.2-1
 _ZN11vpMeEllipse12computeAngleEiiRdiiS0_@Base 2.6.2-1
 _ZN11vpMeEllipse12computeAngleEiiii@Base 2.6.2-1
 _ZN11vpMeEllipse12initTrackingERK7vpImageIhE@Base 2.6.2-1
 _ZN11vpMeEllipse12initTrackingERK7vpImageIhEjP12vpImagePoint@Base 2.6.2-1
 _ZN11vpMeEllipse12initTrackingERK7vpImageIhEjPjS4_@Base 2.6.2-1
 _ZN11vpMeEllipse13getParametersEv@Base 2.6.2-1
 _ZN11vpMeEllipse14computeMomentsEv@Base 2.6.2-1
 _ZN11vpMeEllipse14setExtremitiesEv@Base 2.6.2-1
 _ZN11vpMeEllipse14suppressPointsEv@Base 2.6.2-1
 _ZN11vpMeEllipse15printParametersEv@Base 2.6.2-1
 _ZN11vpMeEllipse15seekExtremitiesERK7vpImageIhE@Base 2.6.2-1
 _ZN11vpMeEllipse5trackERK7vpImageIhE@Base 2.6.2-1
 _ZN11vpMeEllipse6sampleERK7vpImageIhE@Base 2.6.2-1
 _ZN11vpMeEllipse7displayERK7vpImageIhE7vpColor@Base 2.6.2-1
 _ZN11vpMeEllipse7displayERK7vpImageIhERK12vpImagePointRKdS8_S8_S8_S8_7vpColor@Base 2.6.2-1
 _ZN11vpMeEllipse8reSampleERK7vpImageIhE@Base 2.6.2-1
 _ZN11vpMeEllipseC1ERKS_@Base 2.6.2-1
 _ZN11vpMeEllipseC1Ev@Base 2.6.2-1
 _ZN11vpMeEllipseC2ERKS_@Base 2.6.2-1
 _ZN11vpMeEllipseC2Ev@Base 2.6.2-1
 _ZN11vpMeEllipseD0Ev@Base 2.6.2-1
 _ZN11vpMeEllipseD1Ev@Base 2.6.2-1
 _ZN11vpMeEllipseD2Ev@Base 2.6.2-1
 _ZN11vpMeTracker10outOfImageE12vpImagePointiii@Base 2.6.2-1
 _ZN11vpMeTracker10outOfImageEiiiii@Base 2.6.2-1
 _ZN11vpMeTracker12initTrackingERK7vpImageIhE@Base 2.6.2-1
 _ZN11vpMeTracker14numberOfSignalEv@Base 2.6.2-1
 _ZN11vpMeTracker19totalNumberOfSignalEv@Base 2.6.2-1
 _ZN11vpMeTracker4initEv@Base 2.6.2-1
 _ZN11vpMeTracker5trackERK7vpImageIhE@Base 2.6.2-1
 _ZN11vpMeTracker7displayERK7vpImageIhE@Base 2.6.2-1
 _ZN11vpMeTracker7displayERK7vpImageIhER11vpColVectorRj@Base 2.6.2-1
 _ZN11vpMeTrackerC1ERKS_@Base 2.6.2-1
 _ZN11vpMeTrackerC1Ev@Base 2.6.2-1
 _ZN11vpMeTrackerC2ERKS_@Base 2.6.2-1
 _ZN11vpMeTrackerC2Ev@Base 2.6.2-1
 _ZN11vpMeTrackerD0Ev@Base 2.6.2-1
 _ZN11vpMeTrackerD1Ev@Base 2.6.2-1
 _ZN11vpMeTrackerD2Ev@Base 2.6.2-1
 _ZN11vpMeTrackeraSERS_@Base 2.6.2-1
 _ZN11vpParseArgv10printUsageEPNS_10vpArgvInfoEi@Base 2.6.2-1
 _ZN11vpParseArgv12defaultTableE@Base 2.6.2-1
 _ZN11vpParseArgv5parseEPiPPKcPNS_10vpArgvInfoEi@Base 2.6.2-1
 _ZN11vpParseArgv5parseEiPPKcS1_S2_@Base 2.6.2-1
 _ZN11vpPlotCurve8plotListERK7vpImageIhEdddd@Base 2.6.2-1
 _ZN11vpPlotCurve9plotPointERK7vpImageIhERK12vpImagePointdd@Base 2.6.2-1
 _ZN11vpPlotCurveC1Ev@Base 2.6.2-1
 _ZN11vpPlotCurveC2Ev@Base 2.6.2-1
 _ZN11vpPlotCurveD1Ev@Base 2.6.2-1
 _ZN11vpPlotCurveD2Ev@Base 2.6.2-1
 _ZN11vpPlotGraph10navigationERK7vpImageIhERb@Base 2.6.2-1
 _ZN11vpPlotGraph11check3DlineER12vpImagePointS1_@Base 2.6.2-1
 _ZN11vpPlotGraph11displayGridER7vpImageIhE@Base 2.6.2-1
 _ZN11vpPlotGraph11displayUnitER7vpImageIhE@Base 2.6.2-1
 _ZN11vpPlotGraph12check3DpointER12vpImagePoint@Base 2.6.2-1
 _ZN11vpPlotGraph12displayTitleER7vpImageIhE@Base 2.6.2-1
 _ZN11vpPlotGraph13displayGrid3DER7vpImageIhE@Base 2.6.2-1
 _ZN11vpPlotGraph13displayLegendER7vpImageIhE@Base 2.6.2-1
 _ZN11vpPlotGraph13getPixelValueER7vpImageIhER12vpImagePoint@Base 2.6.2-1
 _ZN11vpPlotGraph13setCurveColorEj7vpColor@Base 2.6.2-1
 _ZN11vpPlotGraph14clearGraphZoneER7vpImageIhE@Base 2.6.2-1
 _ZN11vpPlotGraph14resetPointListEj@Base 2.6.2-1
 _ZN11vpPlotGraph17setCurveThicknessEjj@Base 2.6.2-1
 _ZN11vpPlotGraph22computeGraphParametersEv@Base 2.6.2-1
 _ZN11vpPlotGraph24computeGraphParameters3DEv@Base 2.6.2-1
 _ZN11vpPlotGraph4moveERK7vpImageIhE@Base 2.6.2-1
 _ZN11vpPlotGraph4plotER7vpImageIhEjdd@Base 2.6.2-1
 _ZN11vpPlotGraph4plotER7vpImageIhEjddd@Base 2.6.2-1
 _ZN11vpPlotGraph6replotER7vpImageIhE@Base 2.6.2-1
 _ZN11vpPlotGraph8findPoseEv@Base 2.6.2-1
 _ZN11vpPlotGraph8initSizeE12vpImagePointjjjj@Base 2.6.2-1
 _ZN11vpPlotGraph8replot3DER7vpImageIhE@Base 2.6.2-1
 _ZN11vpPlotGraph8rescalexEjd@Base 2.6.2-1
 _ZN11vpPlotGraph8rescaleyEjd@Base 2.6.2-1
 _ZN11vpPlotGraph8rescalezEjd@Base 2.6.2-1
 _ZN11vpPlotGraph8setTitleEPKc@Base 2.6.2-1
 _ZN11vpPlotGraph8setUnitXEPKc@Base 2.6.2-1
 _ZN11vpPlotGraph8setUnitYEPKc@Base 2.6.2-1
 _ZN11vpPlotGraph8setUnitZEPKc@Base 2.6.2-1
 _ZN11vpPlotGraph9initGraphEj@Base 2.6.2-1
 _ZN11vpPlotGraph9initScaleER7vpImageIhEddiddibb@Base 2.6.2-1
 _ZN11vpPlotGraph9initScaleER7vpImageIhEddiddiddibb@Base 2.6.2-1
 _ZN11vpPlotGraph9setLegendEjPKc@Base 2.6.2-1
 _ZN11vpPlotGraphC1Ev@Base 2.6.2-1
 _ZN11vpPlotGraphC2Ev@Base 2.6.2-1
 _ZN11vpPlotGraphD1Ev@Base 2.6.2-1
 _ZN11vpPlotGraphD2Ev@Base 2.6.2-1
 _ZN11vpRingLight2onEv@Base 2.6.2-1
 _ZN11vpRingLight3offEv@Base 2.6.2-1
 _ZN11vpRingLight5pulseEd@Base 2.6.2-1
 _ZN11vpRingLight5pulseEv@Base 2.6.2-1
 _ZN11vpRingLightC1Ev@Base 2.6.2-1
 _ZN11vpRingLightC2Ev@Base 2.6.2-1
 _ZN11vpRingLightD1Ev@Base 2.6.2-1
 _ZN11vpRingLightD2Ev@Base 2.6.2-1
 _ZN11vpRowVector7reshapeER8vpMatrixRKjS3_@Base 2.6.2-1
 _ZN11vpRowVector7reshapeERKjS1_@Base 2.6.2-1
 _ZN11vpRowVector9normalizeEv@Base 2.6.2-1
 _ZN11vpRowVectorC1ER8vpMatrixj@Base 2.6.2-1
 _ZN11vpRowVectorC1ERKS_@Base 2.6.2-1
 _ZN11vpRowVectorC2ER8vpMatrixj@Base 2.6.2-1
 _ZN11vpRowVectorC2ERKS_@Base 2.6.2-1
 _ZN11vpRowVectorD0Ev@Base 2.6.2-1
 _ZN11vpRowVectorD1Ev@Base 2.6.2-1
 _ZN11vpRowVectorD2Ev@Base 2.6.2-1
 _ZN11vpRowVectoraSERK8vpMatrix@Base 2.6.2-1
 _ZN11vpRowVectoraSERKS_@Base 2.6.2-1
 _ZN11vpRowVectoraSEd@Base 2.6.2-1
 _ZN11vpScanPointD0Ev@Base 2.6.2-1
 _ZN11vpScanPointD1Ev@Base 2.6.2-1
 _ZN11vpScanPointD2Ev@Base 2.6.2-1
 _ZN11vpServoData11setMeterRadEv@Base 2.6.2-1
 _ZN11vpServoData4openEPKc@Base 2.6.2-1
 _ZN11vpServoData4saveERK7vpServo@Base 2.6.2-1
 _ZN11vpServoData5closeEv@Base 2.6.2-1
 _ZN11vpServoData8setCmDegEv@Base 2.6.2-1
 _ZN11vpServolens11getPositionENS_11vpServoTypeERj@Base 2.6.2-1
 _ZN11vpServolens11setAutoIrisEb@Base 2.6.2-1
 _ZN11vpServolens11setPositionENS_11vpServoTypeEj@Base 2.6.2-1
 _ZN11vpServolens12enablePromptEb@Base 2.6.2-1
 _ZN11vpServolens13setControllerENS_16vpControllerTypeE@Base 2.6.2-1
 _ZN11vpServolens17enableCmdCompleteENS_11vpServoTypeEb@Base 2.6.2-1
 _ZN11vpServolens19getCameraParametersER7vpImageIhE@Base 2.6.2-1
 _ZN11vpServolens4initEv@Base 2.6.2-1
 _ZN11vpServolens4openEPKc@Base 2.6.2-1
 _ZN11vpServolens4readEPcl@Base 2.6.2-1
 _ZN11vpServolens4waitENS_11vpServoTypeE@Base 2.6.2-1
 _ZN11vpServolens4waitEv@Base 2.6.2-1
 _ZN11vpServolens5cleanEPKcPc@Base 2.6.2-1
 _ZN11vpServolens5closeEv@Base 2.6.2-1
 _ZN11vpServolens5resetEv@Base 2.6.2-1
 _ZN11vpServolens5writeEPKc@Base 2.6.2-1
 _ZN11vpServolensC1EPKc@Base 2.6.2-1
 _ZN11vpServolensC1Ev@Base 2.6.2-1
 _ZN11vpServolensC2EPKc@Base 2.6.2-1
 _ZN11vpServolensC2Ev@Base 2.6.2-1
 _ZN11vpServolensD1Ev@Base 2.6.2-1
 _ZN11vpServolensD2Ev@Base 2.6.2-1
 _ZN11vpSickLDMRS5setupESsi@Base 2.6.2-1
 _ZN11vpSickLDMRS5setupEv@Base 2.6.2-1
 _ZN11vpSickLDMRS7measureEP11vpLaserScan@Base 2.6.2-1
 _ZN11vpSickLDMRSC1Ev@Base 2.6.2-1
 _ZN11vpSickLDMRSC2Ev@Base 2.6.2-1
 _ZN11vpSickLDMRSD0Ev@Base 2.6.2-1
 _ZN11vpSickLDMRSD1Ev@Base 2.6.2-1
 _ZN11vpSickLDMRSD2Ev@Base 2.6.2-1
 _ZN11vpSubMatrix17checkParentStatusEv@Base 2.6.2-1
 _ZN11vpSubMatrix4initER8vpMatrixRKjS3_S3_S3_@Base 2.6.2-1
 _ZN11vpSubMatrixC1ER8vpMatrixRKjS3_S3_S3_@Base 2.6.2-1
 _ZN11vpSubMatrixC1Ev@Base 2.6.2-1
 _ZN11vpSubMatrixC2ER8vpMatrixRKjS3_S3_S3_@Base 2.6.2-1
 _ZN11vpSubMatrixC2Ev@Base 2.6.2-1
 _ZN11vpSubMatrixD0Ev@Base 2.6.2-1
 _ZN11vpSubMatrixD1Ev@Base 2.6.2-1
 _ZN11vpSubMatrixD2Ev@Base 2.6.2-1
 _ZN11vpSubMatrixaSERK8vpMatrix@Base 2.6.2-1
 _ZN11vpSubMatrixaSERKS_@Base 2.6.2-1
 _ZN11vpSubMatrixaSERKd@Base 2.6.2-1
 _ZN11vpXmlParser15xmlReadIntChildEP7_xmlDocP8_xmlNode@Base 2.6.2-1
 _ZN11vpXmlParser16xmlReadCharChildEP7_xmlDocP8_xmlNode@Base 2.6.2-1
 _ZN11vpXmlParser16xmlWriteIntChildEP8_xmlNodePKci@Base 2.6.2-1
 _ZN11vpXmlParser17xmlWriteCharChildEP8_xmlNodePKcS3_@Base 2.6.2-1
 _ZN11vpXmlParser18xmlReadDoubleChildEP7_xmlDocP8_xmlNode@Base 2.6.2-1
 _ZN11vpXmlParser18xmlReadStringChildEP7_xmlDocP8_xmlNode@Base 2.6.2-1
 _ZN11vpXmlParser19xmlWriteDoubleChildEP8_xmlNodePKcd@Base 2.6.2-1
 _ZN11vpXmlParser19xmlWriteStringChildEP8_xmlNodePKcRKSs@Base 2.6.2-1
 _ZN11vpXmlParser23xmlReadUnsignedIntChildEP7_xmlDocP8_xmlNode@Base 2.6.2-1
 _ZN11vpXmlParser24xmlWriteUnsignedIntChildEP8_xmlNodePKcj@Base 2.6.2-1
 _ZN11vpXmlParser4saveERKSsb@Base 2.6.2-1
 _ZN11vpXmlParser5parseERKSs@Base 2.6.2-1
 _ZN11vpXmlParserC1ERKS_@Base 2.6.2-1
 _ZN11vpXmlParserC1Ev@Base 2.6.2-1
 _ZN11vpXmlParserC2ERKS_@Base 2.6.2-1
 _ZN11vpXmlParserC2Ev@Base 2.6.2-1
 _ZN11vpXmlParserD0Ev@Base 2.6.2-1
 _ZN11vpXmlParserD1Ev@Base 2.6.2-1
 _ZN11vpXmlParserD2Ev@Base 2.6.2-1
 _ZN12vpDisplayGTK10getClickUpER12vpImagePointRN13vpMouseButton17vpMouseButtonTypeEb@Base 2.6.2-1
 _ZN12vpDisplayGTK11displayLineERK12vpImagePointS2_RK7vpColorj@Base 2.6.2-1
 _ZN12vpDisplayGTK12clearDisplayERK7vpColor@Base 2.6.2-1
 _ZN12vpDisplayGTK12closeDisplayEv@Base 2.6.2-1
 _ZN12vpDisplayGTK12displayArrowERK12vpImagePointS2_RK7vpColorjjj@Base 2.6.2-1
 _ZN12vpDisplayGTK12displayCrossERK12vpImagePointjRK7vpColorj@Base 2.6.2-1
 _ZN12vpDisplayGTK12displayImageEPKh@Base 2.6.2-1
 _ZN12vpDisplayGTK12displayImageERK7vpImageI6vpRGBaE@Base 2.6.2-1
 _ZN12vpDisplayGTK12displayImageERK7vpImageIhE@Base 2.6.2-1
 _ZN12vpDisplayGTK12displayPointERK12vpImagePointRK7vpColor@Base 2.6.2-1
 _ZN12vpDisplayGTK12flushDisplayEv@Base 2.6.2-1
 _ZN12vpDisplayGTK13displayCircleERK12vpImagePointjRK7vpColorbj@Base 2.6.2-1
 _ZN12vpDisplayGTK13getScreenSizeERjS0_@Base 2.6.2-1
 _ZN12vpDisplayGTK14displayDotLineERK12vpImagePointS2_RK7vpColorj@Base 2.6.2-1
 _ZN12vpDisplayGTK14getScreenDepthEv@Base 2.6.2-1
 _ZN12vpDisplayGTK15displayImageROIERK7vpImageI6vpRGBaERK12vpImagePointjj@Base 2.6.2-1
 _ZN12vpDisplayGTK15displayImageROIERK7vpImageIhERK12vpImagePointjj@Base 2.6.2-1
 _ZN12vpDisplayGTK15flushDisplayROIERK12vpImagePointjj@Base 2.6.2-1
 _ZN12vpDisplayGTK16displayRectangleERK12vpImagePointS2_RK7vpColorbj@Base 2.6.2-1
 _ZN12vpDisplayGTK16displayRectangleERK12vpImagePointjjRK7vpColorbj@Base 2.6.2-1
 _ZN12vpDisplayGTK16displayRectangleERK6vpRectRK7vpColorbj@Base 2.6.2-1
 _ZN12vpDisplayGTK16getKeyboardEventEPcb@Base 2.6.2-1
 _ZN12vpDisplayGTK16getKeyboardEventEb@Base 2.6.2-1
 _ZN12vpDisplayGTK17displayCharStringERK12vpImagePointPKcRK7vpColor@Base 2.6.2-1
 _ZN12vpDisplayGTK17setWindowPositionEii@Base 2.6.2-1
 _ZN12vpDisplayGTK18getPointerPositionER12vpImagePoint@Base 2.6.2-1
 _ZN12vpDisplayGTK21getPointerMotionEventER12vpImagePoint@Base 2.6.2-1
 _ZN12vpDisplayGTK4initER7vpImageI6vpRGBaEiiPKc@Base 2.6.2-1
 _ZN12vpDisplayGTK4initER7vpImageIhEiiPKc@Base 2.6.2-1
 _ZN12vpDisplayGTK4initEjjiiPKc@Base 2.6.2-1
 _ZN12vpDisplayGTK7setFontEPKc@Base 2.6.2-1
 _ZN12vpDisplayGTK8getClickER12vpImagePointRN13vpMouseButton17vpMouseButtonTypeEb@Base 2.6.2-1
 _ZN12vpDisplayGTK8getClickER12vpImagePointb@Base 2.6.2-1
 _ZN12vpDisplayGTK8getClickEb@Base 2.6.2-1
 _ZN12vpDisplayGTK8getImageER7vpImageI6vpRGBaE@Base 2.6.2-1
 _ZN12vpDisplayGTK8setTitleEPKc@Base 2.6.2-1
 _ZN12vpDisplayGTKC1ER7vpImageI6vpRGBaEiiPKc@Base 2.6.2-1
 _ZN12vpDisplayGTKC1ER7vpImageIhEiiPKc@Base 2.6.2-1
 _ZN12vpDisplayGTKC1EiiPKc@Base 2.6.2-1
 _ZN12vpDisplayGTKC1Ev@Base 2.6.2-1
 _ZN12vpDisplayGTKC2ER7vpImageI6vpRGBaEiiPKc@Base 2.6.2-1
 _ZN12vpDisplayGTKC2ER7vpImageIhEiiPKc@Base 2.6.2-1
 _ZN12vpDisplayGTKC2EiiPKc@Base 2.6.2-1
 _ZN12vpDisplayGTKC2Ev@Base 2.6.2-1
 _ZN12vpDisplayGTKD0Ev@Base 2.6.2-1
 _ZN12vpDisplayGTKD1Ev@Base 2.6.2-1
 _ZN12vpDisplayGTKD2Ev@Base 2.6.2-1
 _ZN12vpHomography10HartleyDLTEjPdS0_S0_S0_RS_@Base 2.6.2-1
 _ZN12vpHomography10initRansacEjPdS0_S0_S0_R11vpColVector@Base 2.6.2-1
 _ZN12vpHomography14sing_thresholdE@Base 2.6.2-1
 _ZN12vpHomography15computeResidualER11vpColVectorS1_S1_@Base 2.6.2-1
 _ZN12vpHomography15computeRotationEjP7vpPointS1_R19vpHomogeneousMatrixi@Base 2.6.2-1
 _ZN12vpHomography18threshold_rotationE@Base 2.6.2-1
 _ZN12vpHomography19computeDisplacementE8vpMatrixddR6vpListI16vpRotationMatrixERS1_I19vpTranslationVectorERS1_I11vpColVectorE@Base 2.6.2-1
 _ZN12vpHomography19computeDisplacementER16vpRotationMatrixR19vpTranslationVectorR11vpColVector@Base 2.6.2-1
 _ZN12vpHomography19computeDisplacementERK11vpColVectorR16vpRotationMatrixR19vpTranslationVectorRS0_@Base 2.6.2-1
 _ZN12vpHomography19computeDisplacementERK8vpMatrixddRSt4listI16vpRotationMatrixSaIS4_EERS3_I19vpTranslationVectorSaIS8_EERS3_I11vpColVectorSaISC_EE@Base 2.6.2-1
 _ZN12vpHomography19computeDisplacementERKS_R16vpRotationMatrixR19vpTranslationVectorR11vpColVector@Base 2.6.2-1
 _ZN12vpHomography19computeDisplacementERKS_RK11vpColVectorR16vpRotationMatrixR19vpTranslationVectorRS2_@Base 2.6.2-1
 _ZN12vpHomography19computeDisplacementEjP7vpPointS1_P7vpPlaneR19vpHomogeneousMatrixS5_i@Base 2.6.2-1
 _ZN12vpHomography19computeDisplacementEjP7vpPointS1_R7vpPlaneR19vpHomogeneousMatrixS5_i@Base 2.6.2-1
 _ZN12vpHomography20HartleyNormalizationEjPdS0_S0_S0_RdS1_S1_@Base 2.6.2-1
 _ZN12vpHomography21computeTransformationER11vpColVectorPjS1_@Base 2.6.2-1
 _ZN12vpHomography22HartleyDenormalizationERS_S0_dddddd@Base 2.6.2-1
 _ZN12vpHomography22threshold_displacementE@Base 2.6.2-1
 _ZN12vpHomography23degenerateConfigurationER11vpColVectorPj@Base 2.6.2-1
 _ZN12vpHomography23degenerateConfigurationER11vpColVectorPjd@Base 2.6.2-1
 _ZN12vpHomography3DLTEjPdS0_S0_S0_RS_@Base 2.6.2-1
 _ZN12vpHomography3HLMEjPdS0_S0_S0_bRS_@Base 2.6.2-1
 _ZN12vpHomography4initEv@Base 2.6.2-1
 _ZN12vpHomography4loadERSt14basic_ifstreamIcSt11char_traitsIcEE@Base 2.6.2-1
 _ZN12vpHomography5buildERS_RK19vpHomogeneousMatrixRK7vpPlane@Base 2.6.2-1
 _ZN12vpHomography5buildEv@Base 2.6.2-1
 _ZN12vpHomography5printEv@Base 2.6.2-1
 _ZN12vpHomography6insertERK14vpThetaUVector@Base 2.6.2-1
 _ZN12vpHomography6insertERK16vpRotationMatrix@Base 2.6.2-1
 _ZN12vpHomography6insertERK19vpHomogeneousMatrix@Base 2.6.2-1
 _ZN12vpHomography6insertERK19vpTranslationVector@Base 2.6.2-1
 _ZN12vpHomography6insertERK7vpPlane@Base 2.6.2-1
 _ZN12vpHomography6ransacEjPdS0_S0_S0_RS_R11vpColVectorRdidd@Base 2.6.2-1
 _ZN12vpHomography6ransacEjPdS0_S0_S0_RS_id@Base 2.6.2-1
 _ZN12vpHomography9buildFromERK12vpPoseVectorRK7vpPlane@Base 2.6.2-1
 _ZN12vpHomography9buildFromERK14vpThetaUVectorRK19vpTranslationVectorRK7vpPlane@Base 2.6.2-1
 _ZN12vpHomography9buildFromERK16vpRotationMatrixRK19vpTranslationVectorRK7vpPlane@Base 2.6.2-1
 _ZN12vpHomography9buildFromERK19vpHomogeneousMatrixRK7vpPlane@Base 2.6.2-1
 _ZN12vpHomographyC1ERK12vpPoseVectorRK7vpPlane@Base 2.6.2-1
 _ZN12vpHomographyC1ERK14vpThetaUVectorRK19vpTranslationVectorRK7vpPlane@Base 2.6.2-1
 _ZN12vpHomographyC1ERK16vpRotationMatrixRK19vpTranslationVectorRK7vpPlane@Base 2.6.2-1
 _ZN12vpHomographyC1ERK19vpHomogeneousMatrixRK7vpPlane@Base 2.6.2-1
 _ZN12vpHomographyC1ERKS_@Base 2.6.2-1
 _ZN12vpHomographyC1Ev@Base 2.6.2-1
 _ZN12vpHomographyC2ERK12vpPoseVectorRK7vpPlane@Base 2.6.2-1
 _ZN12vpHomographyC2ERK14vpThetaUVectorRK19vpTranslationVectorRK7vpPlane@Base 2.6.2-1
 _ZN12vpHomographyC2ERK16vpRotationMatrixRK19vpTranslationVectorRK7vpPlane@Base 2.6.2-1
 _ZN12vpHomographyC2ERK19vpHomogeneousMatrixRK7vpPlane@Base 2.6.2-1
 _ZN12vpHomographyC2ERKS_@Base 2.6.2-1
 _ZN12vpHomographyC2Ev@Base 2.6.2-1
 _ZN12vpHomographyD0Ev@Base 2.6.2-1
 _ZN12vpHomographyD1Ev@Base 2.6.2-1
 _ZN12vpHomographyD2Ev@Base 2.6.2-1
 _ZN12vpImagePoint10projectionERK12vpHomography@Base 2.6.2-1
 _ZN12vpImagePointD0Ev@Base 2.6.2-1
 _ZN12vpImagePointD1Ev@Base 2.6.2-1
 _ZN12vpImagePointD2Ev@Base 2.6.2-1
 _ZN12vpImageTools14createSubImageI6vpRGBaEEvRK7vpImageIT_EjjjjRS4_@Base 2.6.2-1
 _ZN12vpImageTools14createSubImageIhEEvRK7vpImageIT_ERK6vpRectRS3_@Base 2.6.2-1
 _ZN12vpImageTools15imageDifferenceER7vpImageIhES2_S2_@Base 2.6.2-1
 _ZN12vpImageTools9changeLUTER7vpImageIhEhhhh@Base 2.6.2-1
 _ZN12vpMbtPolygon10setNbPointEj@Base 2.6.2-1
 _ZN12vpMbtPolygon11changeFrameERK19vpHomogeneousMatrix@Base 2.6.2-1
 _ZN12vpMbtPolygon8addPointEjRK7vpPoint@Base 2.6.2-1
 _ZN12vpMbtPolygon9isVisibleERK19vpHomogeneousMatrix@Base 2.6.2-1
 _ZN12vpMbtPolygon9isVisibleERK19vpHomogeneousMatrixd@Base 2.6.2-1
 _ZN12vpMbtPolygonC1Ev@Base 2.6.2-1
 _ZN12vpMbtPolygonC2Ev@Base 2.6.2-1
 _ZN12vpMbtPolygonD1Ev@Base 2.6.2-1
 _ZN12vpMbtPolygonD2Ev@Base 2.6.2-1
 _ZN12vpMomentArea4nameEv@Base 2.6.2-1
 _ZN12vpMomentArea7computeEv@Base 2.6.2-1
 _ZN12vpMomentAreaC1Ev@Base 2.6.2-1
 _ZN12vpMomentAreaC2Ev@Base 2.6.2-1
 _ZN12vpMomentAreaD0Ev@Base 2.6.2-1
 _ZN12vpMomentAreaD1Ev@Base 2.6.2-1
 _ZN12vpMomentAreaD2Ev@Base 2.6.2-1
 _ZN12vpPoseVector4initEv@Base 2.6.2-1
 _ZN12vpPoseVector4loadERSt14basic_ifstreamIcSt11char_traitsIcEE@Base 2.6.2-1
 _ZN12vpPoseVector5printEv@Base 2.6.2-1
 _ZN12vpPoseVector9buildFromERK19vpHomogeneousMatrix@Base 2.6.2-1
 _ZN12vpPoseVector9buildFromERK19vpTranslationVectorRK14vpThetaUVector@Base 2.6.2-1
 _ZN12vpPoseVector9buildFromERK19vpTranslationVectorRK16vpRotationMatrix@Base 2.6.2-1
 _ZN12vpPoseVectorC1ERK19vpHomogeneousMatrix@Base 2.6.2-1
 _ZN12vpPoseVectorC1ERK19vpTranslationVectorRK14vpThetaUVector@Base 2.6.2-1
 _ZN12vpPoseVectorC1ERK19vpTranslationVectorRK16vpRotationMatrix@Base 2.6.2-1
 _ZN12vpPoseVectorC1Edddddd@Base 2.6.2-1
 _ZN12vpPoseVectorC1Ev@Base 2.6.2-1
 _ZN12vpPoseVectorC2ERK19vpHomogeneousMatrix@Base 2.6.2-1
 _ZN12vpPoseVectorC2ERK19vpTranslationVectorRK14vpThetaUVector@Base 2.6.2-1
 _ZN12vpPoseVectorC2ERK19vpTranslationVectorRK16vpRotationMatrix@Base 2.6.2-1
 _ZN12vpPoseVectorC2Edddddd@Base 2.6.2-1
 _ZN12vpPoseVectorC2Ev@Base 2.6.2-1
 _ZN12vpPoseVectorD0Ev@Base 2.6.2-1
 _ZN12vpPoseVectorD1Ev@Base 2.6.2-1
 _ZN12vpPoseVectorD2Ev@Base 2.6.2-1
 _ZN12vpRxyzVector9buildFromERK14vpThetaUVector@Base 2.6.2-1
 _ZN12vpRxyzVector9buildFromERK16vpRotationMatrix@Base 2.6.2-1
 _ZN12vpRxyzVectorC1ERK14vpThetaUVector@Base 2.6.2-1
 _ZN12vpRxyzVectorC1ERK16vpRotationMatrix@Base 2.6.2-1
 _ZN12vpRxyzVectorC1ERKS_@Base 2.6.2-1
 _ZN12vpRxyzVectorC2ERK14vpThetaUVector@Base 2.6.2-1
 _ZN12vpRxyzVectorC2ERK16vpRotationMatrix@Base 2.6.2-1
 _ZN12vpRxyzVectorC2ERKS_@Base 2.6.2-1
 _ZN12vpRxyzVectoraSERKS_@Base 2.6.2-1
 _ZN12vpRzyxVector9buildFromERK14vpThetaUVector@Base 2.6.2-1
 _ZN12vpRzyxVector9buildFromERK16vpRotationMatrix@Base 2.6.2-1
 _ZN12vpRzyxVectorC1ERK14vpThetaUVector@Base 2.6.2-1
 _ZN12vpRzyxVectorC1ERK16vpRotationMatrix@Base 2.6.2-1
 _ZN12vpRzyxVectorC1ERKS_@Base 2.6.2-1
 _ZN12vpRzyxVectorC2ERK14vpThetaUVector@Base 2.6.2-1
 _ZN12vpRzyxVectorC2ERK16vpRotationMatrix@Base 2.6.2-1
 _ZN12vpRzyxVectorC2ERKS_@Base 2.6.2-1
 _ZN12vpRzyxVectoraSERKS_@Base 2.6.2-1
 _ZN12vpRzyzVector9buildFromERK14vpThetaUVector@Base 2.6.2-1
 _ZN12vpRzyzVector9buildFromERK16vpRotationMatrix@Base 2.6.2-1
 _ZN12vpRzyzVectorC1ERK14vpThetaUVector@Base 2.6.2-1
 _ZN12vpRzyzVectorC1ERK16vpRotationMatrix@Base 2.6.2-1
 _ZN12vpRzyzVectorC1ERKS_@Base 2.6.2-1
 _ZN12vpRzyzVectorC2ERK14vpThetaUVector@Base 2.6.2-1
 _ZN12vpRzyzVectorC2ERK16vpRotationMatrix@Base 2.6.2-1
 _ZN12vpRzyzVectorC2ERKS_@Base 2.6.2-1
 _ZN12vpRzyzVectoraSERKS_@Base 2.6.2-1
 _ZN13vpCalibration10clearPointEv@Base 2.6.2-1
 _ZN13vpCalibration11computePoseERK18vpCameraParametersR19vpHomogeneousMatrix@Base 2.6.2-1
 _ZN13vpCalibration11displayDataER7vpImageIhE7vpColorj@Base 2.6.2-1
 _ZN13vpCalibration11displayGridER7vpImageIhE7vpColorj@Base 2.6.2-1
 _ZN13vpCalibration13calibLagrangeER18vpCameraParametersR19vpHomogeneousMatrix@Base 2.6.2-1
 _ZN13vpCalibration13calibVVSMultiEjPS_R18vpCameraParametersb@Base 2.6.2-1
 _ZN13vpCalibration15calibrationTsaiERSt6vectorI19vpHomogeneousMatrixSaIS1_EES4_RS1_@Base 2.6.2-1
 _ZN13vpCalibration15calibrationTsaiEjP19vpHomogeneousMatrixS1_RS0_@Base 2.6.2-1
 _ZN13vpCalibration18computeCalibrationENS_23vpCalibrationMethodTypeER19vpHomogeneousMatrixR18vpCameraParametersb@Base 2.6.2-1
 _ZN13vpCalibration19computeStdDeviationER19vpHomogeneousMatrixR18vpCameraParameters@Base 2.6.2-1
 _ZN13vpCalibration19computeStdDeviationERdS0_@Base 2.6.2-1
 _ZN13vpCalibration22calibVVSWithDistortionER18vpCameraParametersR19vpHomogeneousMatrixb@Base 2.6.2-1
 _ZN13vpCalibration22computeCalibrationTsaiEjPS_R19vpHomogeneousMatrixS2_@Base 2.6.2-1
 _ZN13vpCalibration23computeCalibrationMultiENS_23vpCalibrationMethodTypeEjPS_R18vpCameraParametersb@Base 2.6.2-1
 _ZN13vpCalibration24computeStdDeviation_distER19vpHomogeneousMatrixR18vpCameraParameters@Base 2.6.2-1
 _ZN13vpCalibration27calibVVSWithDistortionMultiEjPS_R18vpCameraParametersb@Base 2.6.2-1
 _ZN13vpCalibration4gainE@Base 2.6.2-1
 _ZN13vpCalibration4initEv@Base 2.6.2-1
 _ZN13vpCalibration8addPointEdddR12vpImagePoint@Base 2.6.2-1
 _ZN13vpCalibration8calibVVSER18vpCameraParametersR19vpHomogeneousMatrixb@Base 2.6.2-1
 _ZN13vpCalibration8readDataEPKc@Base 2.6.2-1
 _ZN13vpCalibration8readGridEPKcRjR6vpListIdES5_S5_b@Base 2.6.2-1
 _ZN13vpCalibration8readGridEPKcRjRSt4listIdSaIdEES6_S6_b@Base 2.6.2-1
 _ZN13vpCalibration9nbIterMaxE@Base 2.6.2-1
 _ZN13vpCalibration9thresholdE@Base 2.6.2-1
 _ZN13vpCalibration9writeDataEPKc@Base 2.6.2-1
 _ZN13vpCalibrationC1Ev@Base 2.6.2-1
 _ZN13vpCalibrationC2Ev@Base 2.6.2-1
 _ZN13vpCalibrationD0Ev@Base 2.6.2-1
 _ZN13vpCalibrationD1Ev@Base 2.6.2-1
 _ZN13vpCalibrationD2Ev@Base 2.6.2-1
 _ZN13vpCalibrationaSERS_@Base 2.6.2-1
 _ZN13vpDiskGrabber11setBaseNameEPKc@Base 2.6.2-1
 _ZN13vpDiskGrabber12setDirectoryEPKc@Base 2.6.2-1
 _ZN13vpDiskGrabber12setExtensionEPKc@Base 2.6.2-1
 _ZN13vpDiskGrabber14setGenericNameEPKc@Base 2.6.2-1
 _ZN13vpDiskGrabber14setImageNumberEl@Base 2.6.2-1
 _ZN13vpDiskGrabber15setNumberOfZeroEj@Base 2.6.2-1
 _ZN13vpDiskGrabber4openER7vpImageI6vpRGBaE@Base 2.6.2-1
 _ZN13vpDiskGrabber4openER7vpImageIhE@Base 2.6.2-1
 _ZN13vpDiskGrabber5closeEv@Base 2.6.2-1
 _ZN13vpDiskGrabber7acquireER7vpImageI6vpRGBaE@Base 2.6.2-1
 _ZN13vpDiskGrabber7acquireER7vpImageI6vpRGBaEl@Base 2.6.2-1
 _ZN13vpDiskGrabber7acquireER7vpImageIhE@Base 2.6.2-1
 _ZN13vpDiskGrabber7acquireER7vpImageIhEl@Base 2.6.2-1
 _ZN13vpDiskGrabber7setStepEi@Base 2.6.2-1
 _ZN13vpDiskGrabberC1EPKc@Base 2.6.2-1
 _ZN13vpDiskGrabberC1EPKcS1_lijS1_@Base 2.6.2-1
 _ZN13vpDiskGrabberC1Ev@Base 2.6.2-1
 _ZN13vpDiskGrabberC2EPKc@Base 2.6.2-1
 _ZN13vpDiskGrabberC2EPKcS1_lijS1_@Base 2.6.2-1
 _ZN13vpDiskGrabberC2Ev@Base 2.6.2-1
 _ZN13vpDiskGrabberD0Ev@Base 2.6.2-1
 _ZN13vpDiskGrabberD1Ev@Base 2.6.2-1
 _ZN13vpDiskGrabberD2Ev@Base 2.6.2-1
 _ZN13vpFeatureLine11interactionEj@Base 2.6.2-1
 _ZN13vpFeatureLine11setRhoThetaEdd@Base 2.6.2-1
 _ZN13vpFeatureLine4initEv@Base 2.6.2-1
 _ZN13vpFeatureLine5errorERK14vpBasicFeaturej@Base 2.6.2-1
 _ZN13vpFeatureLine7setABCDEdddd@Base 2.6.2-1
 _ZN13vpFeatureLine9buildFromEdd@Base 2.6.2-1
 _ZN13vpFeatureLine9buildFromEdddddd@Base 2.6.2-1
 _ZN13vpFeatureLineC1Ev@Base 2.6.2-1
 _ZN13vpFeatureLineC2Ev@Base 2.6.2-1
 _ZN13vpFeatureLineD0Ev@Base 2.6.2-1
 _ZN13vpFeatureLineD1Ev@Base 2.6.2-1
 _ZN13vpFeatureLineD2Ev@Base 2.6.2-1
 _ZN13vpImageFilter5cannyERK7vpImageIhERS1_jdj@Base 2.6.2-1
 _ZN13vpImageFilter6filterERK7vpImageIdERS1_S4_RK8vpMatrix@Base 2.6.2-1
 _ZN13vpImageFilter6filterERK7vpImageIhERS0_IdERK8vpMatrix@Base 2.6.2-1
 _ZN13vpIoExceptionC1EiPKc@Base 2.6.2-1
 _ZN13vpIoExceptionC2EiPKc@Base 2.6.2-1
 _ZN13vpIoExceptionD0Ev@Base 2.6.2-1
 _ZN13vpIoExceptionD1Ev@Base 2.6.2-1
 _ZN13vpIoExceptionD2Ev@Base 2.6.2-1
 _ZN13vpMomentAlpha4nameEv@Base 2.6.2-1
 _ZN13vpMomentAlpha7computeEv@Base 2.6.2-1
 _ZN13vpMomentAlphaC1ERSt6vectorIdSaIdEEd@Base 2.6.2-1
 _ZN13vpMomentAlphaC1Ev@Base 2.6.2-1
 _ZN13vpMomentAlphaC2ERSt6vectorIdSaIdEEd@Base 2.6.2-1
 _ZN13vpMomentAlphaC2Ev@Base 2.6.2-1
 _ZN13vpMomentAlphaD0Ev@Base 2.6.2-1
 _ZN13vpMomentAlphaD1Ev@Base 2.6.2-1
 _ZN13vpMomentAlphaD2Ev@Base 2.6.2-1
 _ZN13vpMomentBasic3getEjj@Base 2.6.2-1
 _ZN13vpMomentBasic3getEv@Base 2.6.2-1
 _ZN13vpMomentBasic4nameEv@Base 2.6.2-1
 _ZN13vpMomentBasic7computeEv@Base 2.6.2-1
 _ZN13vpMomentBasicC1Ev@Base 2.6.2-1
 _ZN13vpMomentBasicC2Ev@Base 2.6.2-1
 _ZN13vpMomentBasicD0Ev@Base 2.6.2-1
 _ZN13vpMomentBasicD1Ev@Base 2.6.2-1
 _ZN13vpMomentBasicD2Ev@Base 2.6.2-1
 _ZN13vpRobotCamera11getPositionEN7vpRobot18vpControlFrameTypeER11vpColVector@Base 2.6.2-1
 _ZN13vpRobotCamera11getPositionER11vpColVector@Base 2.6.2-1
 _ZN13vpRobotCamera11setPositionEN7vpRobot18vpControlFrameTypeERK11vpColVector@Base 2.6.2-1
 _ZN13vpRobotCamera11setPositionERK19vpHomogeneousMatrix@Base 2.6.2-1
 _ZN13vpRobotCamera11setVelocityEN7vpRobot18vpControlFrameTypeERK11vpColVector@Base 2.6.2-1
 _ZN13vpRobotCamera15getDisplacementEN7vpRobot18vpControlFrameTypeER11vpColVector@Base 2.6.2-1
 _ZN13vpRobotCamera17setCameraVelocityERK11vpColVector@Base 2.6.2-1
 _ZN13vpRobotCamera20setArticularVelocityERK11vpColVector@Base 2.6.2-1
 _ZN13vpRobotCamera21getCameraDisplacementER11vpColVector@Base 2.6.2-1
 _ZN13vpRobotCamera24getArticularDisplacementER11vpColVector@Base 2.6.2-1
 _ZN13vpRobotCamera4initEv@Base 2.6.2-1
 _ZN13vpRobotCamera7get_eJeER8vpMatrix@Base 2.6.2-1
 _ZN13vpRobotCamera7get_fJeER8vpMatrix@Base 2.6.2-1
 _ZN13vpRobotCameraC1Ev@Base 2.6.2-1
 _ZN13vpRobotCameraC2Ev@Base 2.6.2-1
 _ZN13vpRobotCameraD0Ev@Base 2.6.2-1
 _ZN13vpRobotCameraD1Ev@Base 2.6.2-1
 _ZN13vpRobotCameraD2Ev@Base 2.6.2-1
 _ZN13vpTraceOutput7displayEPKcP13__va_list_tag@Base 2.6.2-1
 _ZN13vpTraceOutputclEPKcz@Base 2.6.2-1
 _ZN13vpV4l2Grabber10FRAME_SIZEE@Base 2.6.2-1
 _ZN13vpV4l2Grabber10MAX_FORMATE@Base 2.6.2-1
 _ZN13vpV4l2Grabber10MAX_INPUTSE@Base 2.6.2-1
 _ZN13vpV4l2Grabber11MAX_BUFFERSE@Base 2.6.2-1
 _ZN13vpV4l2Grabber11queueBufferEv@Base 2.6.2-1
 _ZN13vpV4l2Grabber12getFramerateEv@Base 2.6.2-1
 _ZN13vpV4l2Grabber12printBufInfoE11v4l2_buffer@Base 2.6.2-1
 _ZN13vpV4l2Grabber12setFramerateENS_19vpV4l2FramerateTypeE@Base 2.6.2-1
 _ZN13vpV4l2Grabber13DEFAULT_INPUTE@Base 2.6.2-1
 _ZN13vpV4l2Grabber13DEFAULT_SCALEE@Base 2.6.2-1
 _ZN13vpV4l2Grabber13stopStreamingEv@Base 2.6.2-1
 _ZN13vpV4l2Grabber14startStreamingEv@Base 2.6.2-1
 _ZN13vpV4l2Grabber15getCapabilitiesEv@Base 2.6.2-1
 _ZN13vpV4l2Grabber4openER7vpImageI6vpRGBaE@Base 2.6.2-1
 _ZN13vpV4l2Grabber4openER7vpImageIhE@Base 2.6.2-1
 _ZN13vpV4l2Grabber4openEv@Base 2.6.2-1
 _ZN13vpV4l2Grabber5closeEv@Base 2.6.2-1
 _ZN13vpV4l2Grabber6waitonERjR7timeval@Base 2.6.2-1
 _ZN13vpV4l2Grabber7acquireER7vpImageI6vpRGBaE@Base 2.6.2-1
 _ZN13vpV4l2Grabber7acquireER7vpImageI6vpRGBaER7timeval@Base 2.6.2-1
 _ZN13vpV4l2Grabber7acquireER7vpImageIhE@Base 2.6.2-1
 _ZN13vpV4l2Grabber7acquireER7vpImageIhER7timeval@Base 2.6.2-1
 _ZN13vpV4l2Grabber8MAX_CTRLE@Base 2.6.2-1
 _ZN13vpV4l2Grabber8MAX_NORME@Base 2.6.2-1
 _ZN13vpV4l2Grabber8getFieldEv@Base 2.6.2-1
 _ZN13vpV4l2Grabber8queueAllEv@Base 2.6.2-1
 _ZN13vpV4l2Grabber8setInputEj@Base 2.6.2-1
 _ZN13vpV4l2Grabber8setScaleEj@Base 2.6.2-1
 _ZN13vpV4l2Grabber9setFormatEv@Base 2.6.2-1
 _ZN13vpV4l2GrabberC1ER7vpImageI6vpRGBaEjj@Base 2.6.2-1
 _ZN13vpV4l2GrabberC1ER7vpImageIhEjj@Base 2.6.2-1
 _ZN13vpV4l2GrabberC1Eb@Base 2.6.2-1
 _ZN13vpV4l2GrabberC1Ejj@Base 2.6.2-1
 _ZN13vpV4l2GrabberC1Ev@Base 2.6.2-1
 _ZN13vpV4l2GrabberC2ER7vpImageI6vpRGBaEjj@Base 2.6.2-1
 _ZN13vpV4l2GrabberC2ER7vpImageIhEjj@Base 2.6.2-1
 _ZN13vpV4l2GrabberC2Eb@Base 2.6.2-1
 _ZN13vpV4l2GrabberC2Ejj@Base 2.6.2-1
 _ZN13vpV4l2GrabberC2Ev@Base 2.6.2-1
 _ZN13vpV4l2GrabberD0Ev@Base 2.6.2-1
 _ZN13vpV4l2GrabberD1Ev@Base 2.6.2-1
 _ZN13vpV4l2GrabberD2Ev@Base 2.6.2-1
 _ZN13vpVideoReader11setFileNameEPKc@Base 2.6.2-1
 _ZN13vpVideoReader12getExtensionERKSs@Base 2.6.2-1
 _ZN13vpVideoReader18findLastFrameIndexEv@Base 2.6.2-1
 _ZN13vpVideoReader4openER7vpImageI6vpRGBaE@Base 2.6.2-1
 _ZN13vpVideoReader4openER7vpImageIhE@Base 2.6.2-1
 _ZN13vpVideoReader5closeEv@Base 2.6.2-1
 _ZN13vpVideoReader7acquireER7vpImageI6vpRGBaE@Base 2.6.2-1
 _ZN13vpVideoReader7acquireER7vpImageIhE@Base 2.6.2-1
 _ZN13vpVideoReader8getFrameER7vpImageI6vpRGBaEl@Base 2.6.2-1
 _ZN13vpVideoReader8getFrameER7vpImageIhEl@Base 2.6.2-1
 _ZN13vpVideoReader9getFormatEPKc@Base 2.6.2-1
 _ZN13vpVideoReaderC1Ev@Base 2.6.2-1
 _ZN13vpVideoReaderC2Ev@Base 2.6.2-1
 _ZN13vpVideoReaderD0Ev@Base 2.6.2-1
 _ZN13vpVideoReaderD1Ev@Base 2.6.2-1
 _ZN13vpVideoReaderD2Ev@Base 2.6.2-1
 _ZN13vpVideoWriter11setFileNameEPKc@Base 2.6.2-1
 _ZN13vpVideoWriter12getExtensionERKSs@Base 2.6.2-1
 _ZN13vpVideoWriter4openER7vpImageI6vpRGBaE@Base 2.6.2-1
 _ZN13vpVideoWriter4openER7vpImageIhE@Base 2.6.2-1
 _ZN13vpVideoWriter5closeEv@Base 2.6.2-1
 _ZN13vpVideoWriter9getFormatEPKc@Base 2.6.2-1
 _ZN13vpVideoWriter9saveFrameER7vpImageI6vpRGBaE@Base 2.6.2-1
 _ZN13vpVideoWriter9saveFrameER7vpImageIhE@Base 2.6.2-1
 _ZN13vpVideoWriterC1Ev@Base 2.6.2-1
 _ZN13vpVideoWriterC2Ev@Base 2.6.2-1
 _ZN13vpVideoWriterD1Ev@Base 2.6.2-1
 _ZN13vpVideoWriterD2Ev@Base 2.6.2-1
 _ZN14vpAdaptiveGain11setConstantEv@Base 2.6.2-1
 _ZN14vpAdaptiveGain12initFromVoidEv@Base 2.6.2-1
 _ZN14vpAdaptiveGain12initStandardEddd@Base 2.6.2-1
 _ZN14vpAdaptiveGain16initFromConstantEd@Base 2.6.2-1
 _ZN14vpAdaptiveGain19DEFAULT_LAMBDA_ZEROE@Base 2.6.2-1
 _ZN14vpAdaptiveGain20DEFAULT_LAMBDA_PENTEE@Base 2.6.2-1
 _ZN14vpAdaptiveGain21DEFAULT_LAMBDA_INFINIE@Base 2.6.2-1
 _ZN14vpAdaptiveGainC1Ev@Base 2.6.2-1
 _ZN14vpAdaptiveGainC2Ev@Base 2.6.2-1
 _ZN14vpBasicFeature10resetFlagsEv@Base 2.6.2-1
 _ZN14vpBasicFeature11FEATURE_ALLE@Base 2.6.2-1
 _ZN14vpBasicFeature12FEATURE_LINEE@Base 2.6.2-1
 _ZN14vpBasicFeature5errorERKS_j@Base 2.6.2-1
 _ZN14vpBasicFeature8setFlagsEv@Base 2.6.2-1
 _ZN14vpBasicFeatureC1Ev@Base 2.6.2-1
 _ZN14vpBasicFeatureC2Ev@Base 2.6.2-1
 _ZN14vpBasicFeatureD0Ev@Base 2.6.2-1
 _ZN14vpBasicFeatureD1Ev@Base 2.6.2-1
 _ZN14vpBasicFeatureD2Ev@Base 2.6.2-1
 _ZN14vpFeatureDepth11interactionEj@Base 2.6.2-1
 _ZN14vpFeatureDepth17set_LogZoverZstarEd@Base 2.6.2-1
 _ZN14vpFeatureDepth20set_xyZLogZoverZstarEdddd@Base 2.6.2-1
 _ZN14vpFeatureDepth4initEv@Base 2.6.2-1
 _ZN14vpFeatureDepth5errorERK14vpBasicFeaturej@Base 2.6.2-1
 _ZN14vpFeatureDepth5set_ZEd@Base 2.6.2-1
 _ZN14vpFeatureDepth5set_xEd@Base 2.6.2-1
 _ZN14vpFeatureDepth5set_yEd@Base 2.6.2-1
 _ZN14vpFeatureDepth9buildFromEdddd@Base 2.6.2-1
 _ZN14vpFeatureDepthC1Ev@Base 2.6.2-1
 _ZN14vpFeatureDepthC2Ev@Base 2.6.2-1
 _ZN14vpFeatureDepthD0Ev@Base 2.6.2-1
 _ZN14vpFeatureDepthD1Ev@Base 2.6.2-1
 _ZN14vpFeatureDepthD2Ev@Base 2.6.2-1
 _ZN14vpFeaturePoint11interactionEj@Base 2.6.2-1
 _ZN14vpFeaturePoint4initEv@Base 2.6.2-1
 _ZN14vpFeaturePoint5errorERK14vpBasicFeaturej@Base 2.6.2-1
 _ZN14vpFeaturePoint5set_ZEd@Base 2.6.2-1
 _ZN14vpFeaturePoint5set_xEd@Base 2.6.2-1
 _ZN14vpFeaturePoint5set_yEd@Base 2.6.2-1
 _ZN14vpFeaturePoint7set_xyZEddd@Base 2.6.2-1
 _ZN14vpFeaturePoint9buildFromEddd@Base 2.6.2-1
 _ZN14vpFeaturePointC1Ev@Base 2.6.2-1
 _ZN14vpFeaturePointC2Ev@Base 2.6.2-1
 _ZN14vpFeaturePointD0Ev@Base 2.6.2-1
 _ZN14vpFeaturePointD1Ev@Base 2.6.2-1
 _ZN14vpFeaturePointD2Ev@Base 2.6.2-1
 _ZN14vpFrameGrabberD0Ev@Base 2.6.2-1
 _ZN14vpFrameGrabberD1Ev@Base 2.6.2-1
 _ZN14vpFrameGrabberD2Ev@Base 2.6.2-1
 _ZN14vpImageConvert10GreyToRGBaEPhS0_j@Base 2.6.2-1
 _ZN14vpImageConvert10RGBaToGreyEPhS0_j@Base 2.6.2-1
 _ZN14vpImageConvert10YCbCrToRGBEPhS0_j@Base 2.6.2-1
 _ZN14vpImageConvert10YCrCbToRGBEPhS0_j@Base 2.6.2-1
 _ZN14vpImageConvert10YUYVToGreyEPhS0_j@Base 2.6.2-1
 _ZN14vpImageConvert10YUYVToRGBaEPhS0_jj@Base 2.6.2-1
 _ZN14vpImageConvert10YV12ToRGBaEPhS0_jj@Base 2.6.2-1
 _ZN14vpImageConvert10YVU9ToRGBaEPhS0_jj@Base 2.6.2-1
 _ZN14vpImageConvert11YCbCrToGreyEPhS0_j@Base 2.6.2-1
 _ZN14vpImageConvert11YCbCrToRGBaEPhS0_j@Base 2.6.2-1
 _ZN14vpImageConvert11YCrCbToRGBaEPhS0_j@Base 2.6.2-1
 _ZN14vpImageConvert11YUV411ToRGBEPhS0_j@Base 2.6.2-1
 _ZN14vpImageConvert11YUV420ToRGBEPhS0_jj@Base 2.6.2-1
 _ZN14vpImageConvert11YUV422ToRGBEPhS0_j@Base 2.6.2-1
 _ZN14vpImageConvert11YUV444ToRGBEPhS0_j@Base 2.6.2-1
 _ZN14vpImageConvert12MONO16ToGreyEPhS0_j@Base 2.6.2-1
 _ZN14vpImageConvert12MONO16ToRGBaEPhS0_j@Base 2.6.2-1
 _ZN14vpImageConvert12YUV411ToGreyEPhS0_j@Base 2.6.2-1
 _ZN14vpImageConvert12YUV411ToRGBaEPhS0_j@Base 2.6.2-1
 _ZN14vpImageConvert12YUV420ToGreyEPhS0_j@Base 2.6.2-1
 _ZN14vpImageConvert12YUV420ToRGBaEPhS0_jj@Base 2.6.2-1
 _ZN14vpImageConvert12YUV422ToGreyEPhS0_j@Base 2.6.2-1
 _ZN14vpImageConvert12YUV422ToRGBaEPhS0_j@Base 2.6.2-1
 _ZN14vpImageConvert12YUV444ToGreyEPhS0_j@Base 2.6.2-1
 _ZN14vpImageConvert12YUV444ToRGBaEPhS0_j@Base 2.6.2-1
 _ZN14vpImageConvert15computeYCbCrLUTEv@Base 2.6.2-1
 _ZN14vpImageConvert16YCbCrLUTcomputedE@Base 2.6.2-1
 _ZN14vpImageConvert19convertToJPEGBufferEPhmR7vpImageIhE@Base 2.6.2-1
 _ZN14vpImageConvert19convertToJPEGBufferERK7vpImageIhEPPhRmj@Base 2.6.2-1
 _ZN14vpImageConvert5splitERK7vpImageI6vpRGBaEPS0_IhES6_S6_S6_@Base 2.6.2-1
 _ZN14vpImageConvert5vpCbbE@Base 2.6.2-1
 _ZN14vpImageConvert5vpCgbE@Base 2.6.2-1
 _ZN14vpImageConvert5vpCgrE@Base 2.6.2-1
 _ZN14vpImageConvert5vpCrrE@Base 2.6.2-1
 _ZN14vpImageConvert7convertEPK9_IplImageR7vpImageI6vpRGBaEb@Base 2.6.2-1
 _ZN14vpImageConvert7convertEPK9_IplImageR7vpImageIhEb@Base 2.6.2-1
 _ZN14vpImageConvert7convertERK7vpImageI6vpRGBaERN2cv3MatE@Base 2.6.2-1
 _ZN14vpImageConvert7convertERK7vpImageI6vpRGBaERP9_IplImage@Base 2.6.2-1
 _ZN14vpImageConvert7convertERK7vpImageI6vpRGBaERS0_IhE@Base 2.6.2-1
 _ZN14vpImageConvert7convertERK7vpImageIdERS0_IhE@Base 2.6.2-1
 _ZN14vpImageConvert7convertERK7vpImageIfERS0_IhE@Base 2.6.2-1
 _ZN14vpImageConvert7convertERK7vpImageIhERN2cv3MatEb@Base 2.6.2-1
 _ZN14vpImageConvert7convertERK7vpImageIhERP9_IplImage@Base 2.6.2-1
 _ZN14vpImageConvert7convertERK7vpImageIhERS0_I6vpRGBaE@Base 2.6.2-1
 _ZN14vpImageConvert7convertERK7vpImageIhERS0_IdE@Base 2.6.2-1
 _ZN14vpImageConvert7convertERK7vpImageIhERS0_IfE@Base 2.6.2-1
 _ZN14vpImageConvert7convertERKN2cv3MatER7vpImageI6vpRGBaEb@Base 2.6.2-1
 _ZN14vpImageConvert7convertERKN2cv3MatER7vpImageIhEb@Base 2.6.2-1
 _ZN14vpImageConvert9BGRToGreyEPhS0_jjb@Base 2.6.2-1
 _ZN14vpImageConvert9BGRToRGBaEPhS0_jjb@Base 2.6.2-1
 _ZN14vpImageConvert9GreyToRGBEPhS0_j@Base 2.6.2-1
 _ZN14vpImageConvert9RGBToGreyEPhS0_j@Base 2.6.2-1
 _ZN14vpImageConvert9RGBToGreyEPhS0_jjb@Base 2.6.2-1
 _ZN14vpImageConvert9RGBToRGBaEPhS0_j@Base 2.6.2-1
 _ZN14vpImageConvert9RGBToRGBaEPhS0_jjb@Base 2.6.2-1
 _ZN14vpImageConvert9RGBaToRGBEPhS0_j@Base 2.6.2-1
 _ZN14vpImageConvert9YUYVToRGBEPhS0_jj@Base 2.6.2-1
 _ZN14vpImageConvert9YV12ToRGBEPhS0_jj@Base 2.6.2-1
 _ZN14vpImageConvert9YVU9ToRGBEPhS0_jj@Base 2.6.2-1
 _ZN14vpKalmanFilter10predictionEv@Base 2.6.2-1
 _ZN14vpKalmanFilter4initEjjj@Base 2.6.2-1
 _ZN14vpKalmanFilter9filteringER11vpColVector@Base 2.6.2-1
 _ZN14vpKalmanFilterC1Ej@Base 2.6.2-1
 _ZN14vpKalmanFilterC1Ejjj@Base 2.6.2-1
 _ZN14vpKalmanFilterC1Ev@Base 2.6.2-1
 _ZN14vpKalmanFilterC2Ej@Base 2.6.2-1
 _ZN14vpKalmanFilterC2Ejjj@Base 2.6.2-1
 _ZN14vpKalmanFilterC2Ev@Base 2.6.2-1
 _ZN14vpKeyPointSurf10matchPointE6vpListIPfES0_IiE@Base 2.6.2-1
 _ZN14vpKeyPointSurf10matchPointERK7vpImageIhE@Base 2.6.2-1
 _ZN14vpKeyPointSurf10matchPointERK7vpImageIhERK12vpImagePointjj@Base 2.6.2-1
 _ZN14vpKeyPointSurf10matchPointERK7vpImageIhERK6vpRect@Base 2.6.2-1
 _ZN14vpKeyPointSurf10matchPointESt4listIPfSaIS1_EES0_IiSaIiEE@Base 2.6.2-1
 _ZN14vpKeyPointSurf14buildReferenceERK7vpImageIhE@Base 2.6.2-1
 _ZN14vpKeyPointSurf14buildReferenceERK7vpImageIhERK12vpImagePointjj@Base 2.6.2-1
 _ZN14vpKeyPointSurf14buildReferenceERK7vpImageIhERK6vpRect@Base 2.6.2-1
 _ZN14vpKeyPointSurf26getLaplacianReferencePointEi@Base 2.6.2-1
 _ZN14vpKeyPointSurf27getDescriptorReferencePointEi@Base 2.6.2-1
 _ZN14vpKeyPointSurf32getDescriptorParamReferencePointEiRiRf@Base 2.6.2-1
 _ZN14vpKeyPointSurf4initEv@Base 2.6.2-1
 _ZN14vpKeyPointSurf7displayERK7vpImageIhES3_j@Base 2.6.2-1
 _ZN14vpKeyPointSurf7displayERK7vpImageIhEjRK7vpColor@Base 2.6.2-1
 _ZN14vpKeyPointSurfC1Ev@Base 2.6.2-1
 _ZN14vpKeyPointSurfC2Ev@Base 2.6.2-1
 _ZN14vpKeyPointSurfD0Ev@Base 2.6.2-1
 _ZN14vpKeyPointSurfD1Ev@Base 2.6.2-1
 _ZN14vpKeyPointSurfD2Ev@Base 2.6.2-1
 _ZN14vpLaserScannerD0Ev@Base 2.6.2-1
 _ZN14vpLaserScannerD1Ev@Base 2.6.2-1
 _ZN14vpLaserScannerD2Ev@Base 2.6.2-1
 _ZN14vpMbtXmlParser11lecture_ecmEP7_xmlDocP8_xmlNode@Base 2.6.2-1
 _ZN14vpMbtXmlParser12lecture_maskEP7_xmlDocP8_xmlNode@Base 2.6.2-1
 _ZN14vpMbtXmlParser13lecture_rangeEP7_xmlDocP8_xmlNode@Base 2.6.2-1
 _ZN14vpMbtXmlParser13readMainClassEP7_xmlDocP8_xmlNode@Base 2.6.2-1
 _ZN14vpMbtXmlParser14lecture_cameraEP7_xmlDocP8_xmlNode@Base 2.6.2-1
 _ZN14vpMbtXmlParser14lecture_sampleEP7_xmlDocP8_xmlNode@Base 2.6.2-1
 _ZN14vpMbtXmlParser14writeMainClassEP8_xmlNode@Base 2.6.2-1
 _ZN14vpMbtXmlParser16lecture_contrastEP7_xmlDocP8_xmlNode@Base 2.6.2-1
 _ZN14vpMbtXmlParser4initEv@Base 2.6.2-1
 _ZN14vpMbtXmlParser5parseEPKc@Base 2.6.2-1
 _ZN14vpMbtXmlParserC1Ev@Base 2.6.2-1
 _ZN14vpMbtXmlParserC2Ev@Base 2.6.2-1
 _ZN14vpMbtXmlParserD0Ev@Base 2.6.2-1
 _ZN14vpMbtXmlParserD1Ev@Base 2.6.2-1
 _ZN14vpMbtXmlParserD2Ev@Base 2.6.2-1
 _ZN14vpMomentCommon10getSurfaceER14vpMomentObject@Base 2.6.2-1
 _ZN14vpMomentCommon6getMu3ER14vpMomentObject@Base 2.6.2-1
 _ZN14vpMomentCommon8getAlphaER14vpMomentObject@Base 2.6.2-1
 _ZN14vpMomentCommon9updateAllER14vpMomentObject@Base 2.6.2-1
 _ZN14vpMomentCommonC1EdSt6vectorIdSaIdEEdd@Base 2.6.2-1
 _ZN14vpMomentCommonC2EdSt6vectorIdSaIdEEdd@Base 2.6.2-1
 _ZN14vpMomentCommonD0Ev@Base 2.6.2-1
 _ZN14vpMomentCommonD1Ev@Base 2.6.2-1
 _ZN14vpMomentCommonD2Ev@Base 2.6.2-1
 _ZN14vpMomentObject10fromVectorERSt6vectorI7vpPointSaIS1_EE@Base 2.6.2-1
 _ZN14vpMomentObject11cacheValuesERSt6vectorIdSaIdEEdd@Base 2.6.2-1
 _ZN14vpMomentObject16calc_mom_polygonEjjRKSt6vectorI7vpPointSaIS1_EE@Base 2.6.2-1
 _ZN14vpMomentObject3getEv@Base 2.6.2-1
 _ZN14vpMomentObject9fromImageERK7vpImageIhEhRK18vpCameraParameters@Base 2.6.2-1
 _ZN14vpMomentObjectC1Ej@Base 2.6.2-1
 _ZN14vpMomentObjectC2Ej@Base 2.6.2-1
 _ZN14vpParallelPort4openEv@Base 2.6.2-1
 _ZN14vpParallelPort5closeEv@Base 2.6.2-1
 _ZN14vpParallelPort7getDataEv@Base 2.6.2-1
 _ZN14vpParallelPort8sendDataERh@Base 2.6.2-1
 _ZN14vpParallelPortC1Ev@Base 2.6.2-1
 _ZN14vpParallelPortC2Ev@Base 2.6.2-1
 _ZN14vpParallelPortD1Ev@Base 2.6.2-1
 _ZN14vpParallelPortD2Ev@Base 2.6.2-1
 _ZN14vpPoseFeatures11computePoseER19vpHomogeneousMatrixRKNS_24vpPoseFeaturesMethodTypeE@Base 2.6.2-1
 _ZN14vpPoseFeatures14addFeatureLineERK10vpCylinderRKi@Base 2.6.2-1
 _ZN14vpPoseFeatures14addFeatureLineERK6vpLine@Base 2.6.2-1
 _ZN14vpPoseFeatures14computePoseVVSER19vpHomogeneousMatrix@Base 2.6.2-1
 _ZN14vpPoseFeatures15addFeaturePointERK7vpPoint@Base 2.6.2-1
 _ZN14vpPoseFeatures17addFeatureEllipseERK8vpCircle@Base 2.6.2-1
 _ZN14vpPoseFeatures17addFeatureEllipseERK8vpSphere@Base 2.6.2-1
 _ZN14vpPoseFeatures17addFeaturePoint3DERK7vpPoint@Base 2.6.2-1
 _ZN14vpPoseFeatures17addFeatureSegmentER7vpPointS1_@Base 2.6.2-1
 _ZN14vpPoseFeatures20computePoseRobustVVSER19vpHomogeneousMatrix@Base 2.6.2-1
 _ZN14vpPoseFeatures21error_and_interactionER19vpHomogeneousMatrixR11vpColVectorR8vpMatrix@Base 2.6.2-1
 _ZN14vpPoseFeatures24addFeatureVanishingPointERK6vpLineS2_@Base 2.6.2-1
 _ZN14vpPoseFeatures24addFeatureVanishingPointERK7vpPoint@Base 2.6.2-1
 _ZN14vpPoseFeatures5clearEv@Base 2.6.2-1
 _ZN14vpPoseFeatures5vpDuoI13vpFeatureLine6vpLineED1Ev@Base 2.6.2-1
 _ZN14vpPoseFeatures5vpDuoI13vpFeatureLine6vpLineED2Ev@Base 2.6.2-1
 _ZN14vpPoseFeatures5vpDuoI14vpFeaturePoint7vpPointED1Ev@Base 2.6.2-1
 _ZN14vpPoseFeatures5vpDuoI14vpFeaturePoint7vpPointED2Ev@Base 2.6.2-1
 _ZN14vpPoseFeatures5vpDuoI16vpFeaturePoint3D7vpPointED1Ev@Base 2.6.2-1
 _ZN14vpPoseFeatures5vpDuoI16vpFeaturePoint3D7vpPointED2Ev@Base 2.6.2-1
 _ZN14vpPoseFeatures5vpDuoI23vpFeatureVanishingPoint7vpPointED1Ev@Base 2.6.2-1
 _ZN14vpPoseFeatures5vpDuoI23vpFeatureVanishingPoint7vpPointED2Ev@Base 2.6.2-1
 _ZN14vpPoseFeatures6vpTrioI16vpFeatureSegment7vpPointS2_ED1Ev@Base 2.6.2-1
 _ZN14vpPoseFeatures6vpTrioI16vpFeatureSegment7vpPointS2_ED2Ev@Base 2.6.2-1
 _ZN14vpPoseFeatures6vpTrioI23vpFeatureVanishingPoint6vpLineS2_ED1Ev@Base 2.6.2-1
 _ZN14vpPoseFeatures6vpTrioI23vpFeatureVanishingPoint6vpLineS2_ED2Ev@Base 2.6.2-1
 _ZN14vpPoseFeaturesC1Ev@Base 2.6.2-1
 _ZN14vpPoseFeaturesC2Ev@Base 2.6.2-1
 _ZN14vpPoseFeaturesD0Ev@Base 2.6.2-1
 _ZN14vpPoseFeaturesD1Ev@Base 2.6.2-1
 _ZN14vpPoseFeaturesD2Ev@Base 2.6.2-1
 _ZN14vpServoDisplay7displayER7vpServoRK18vpCameraParametersR7vpImageI6vpRGBaE7vpColorS9_j@Base 2.6.2-1
 _ZN14vpServoDisplay7displayER7vpServoRK18vpCameraParametersR7vpImageIhE7vpColorS8_j@Base 2.6.2-1
 _ZN14vpSubColVector17checkParentStatusEv@Base 2.6.2-1
 _ZN14vpSubColVector4initER11vpColVectorRKjS3_@Base 2.6.2-1
 _ZN14vpSubColVectorC1ER11vpColVectorRKjS3_@Base 2.6.2-1
 _ZN14vpSubColVectorC1Ev@Base 2.6.2-1
 _ZN14vpSubColVectorC2ER11vpColVectorRKjS3_@Base 2.6.2-1
 _ZN14vpSubColVectorC2Ev@Base 2.6.2-1
 _ZN14vpSubColVectorD0Ev@Base 2.6.2-1
 _ZN14vpSubColVectorD1Ev@Base 2.6.2-1
 _ZN14vpSubColVectorD2Ev@Base 2.6.2-1
 _ZN14vpSubColVectoraSERK11vpColVector@Base 2.6.2-1
 _ZN14vpSubColVectoraSERK8vpMatrix@Base 2.6.2-1
 _ZN14vpSubColVectoraSERKS_@Base 2.6.2-1
 _ZN14vpSubColVectoraSERKd@Base 2.6.2-1
 _ZN14vpSubRowVector17checkParentStatusEv@Base 2.6.2-1
 _ZN14vpSubRowVector4initER11vpRowVectorRKjS3_@Base 2.6.2-1
 _ZN14vpSubRowVectorC1ER11vpRowVectorRKjS3_@Base 2.6.2-1
 _ZN14vpSubRowVectorC1Ev@Base 2.6.2-1
 _ZN14vpSubRowVectorC2ER11vpRowVectorRKjS3_@Base 2.6.2-1
 _ZN14vpSubRowVectorC2Ev@Base 2.6.2-1
 _ZN14vpSubRowVectorD0Ev@Base 2.6.2-1
 _ZN14vpSubRowVectorD1Ev@Base 2.6.2-1
 _ZN14vpSubRowVectorD2Ev@Base 2.6.2-1
 _ZN14vpSubRowVectoraSERK11vpRowVector@Base 2.6.2-1
 _ZN14vpSubRowVectoraSERK8vpMatrix@Base 2.6.2-1
 _ZN14vpSubRowVectoraSERKS_@Base 2.6.2-1
 _ZN14vpSubRowVectoraSERKd@Base 2.6.2-1
 _ZN14vpThetaUVector7minimumE@Base 2.6.2-1
 _ZN14vpThetaUVector9buildFromERK12vpRxyzVector@Base 2.6.2-1
 _ZN14vpThetaUVector9buildFromERK12vpRzyxVector@Base 2.6.2-1
 _ZN14vpThetaUVector9buildFromERK12vpRzyzVector@Base 2.6.2-1
 _ZN14vpThetaUVector9buildFromERK16vpRotationMatrix@Base 2.6.2-1
 _ZN14vpThetaUVector9buildFromERK19vpHomogeneousMatrix@Base 2.6.2-1
 _ZN14vpThetaUVectorC1ERK12vpRxyzVector@Base 2.6.2-1
 _ZN14vpThetaUVectorC1ERK12vpRzyxVector@Base 2.6.2-1
 _ZN14vpThetaUVectorC1ERK12vpRzyzVector@Base 2.6.2-1
 _ZN14vpThetaUVectorC1ERK16vpRotationMatrix@Base 2.6.2-1
 _ZN14vpThetaUVectorC1ERK19vpHomogeneousMatrix@Base 2.6.2-1
 _ZN14vpThetaUVectorC1ERKS_@Base 2.6.2-1
 _ZN14vpThetaUVectorC2ERK12vpRxyzVector@Base 2.6.2-1
 _ZN14vpThetaUVectorC2ERK12vpRzyxVector@Base 2.6.2-1
 _ZN14vpThetaUVectorC2ERK12vpRzyzVector@Base 2.6.2-1
 _ZN14vpThetaUVectorC2ERK16vpRotationMatrix@Base 2.6.2-1
 _ZN14vpThetaUVectorC2ERK19vpHomogeneousMatrix@Base 2.6.2-1
 _ZN14vpThetaUVectorC2ERKS_@Base 2.6.2-1
 _ZN14vpThetaUVectoraSERKS_@Base 2.6.2-1
 _ZN14vpThetaUVectoraSEd@Base 2.6.2-1
 _ZN15vpBasicKeyPointC1Ev@Base 2.6.2-1
 _ZN15vpBasicKeyPointC2Ev@Base 2.6.2-1
 _ZN15vpBasicKeyPointD0Ev@Base 2.6.2-1
 _ZN15vpBasicKeyPointD1Ev@Base 2.6.2-1
 _ZN15vpBasicKeyPointD2Ev@Base 2.6.2-1
 _ZN15vpDisplayOpenCV10getClickUpER12vpImagePointRN13vpMouseButton17vpMouseButtonTypeEb@Base 2.6.2-1
 _ZN15vpDisplayOpenCV11displayLineERK12vpImagePointS2_RK7vpColorj@Base 2.6.2-1
 _ZN15vpDisplayOpenCV12clearDisplayERK7vpColor@Base 2.6.2-1
 _ZN15vpDisplayOpenCV12closeDisplayEv@Base 2.6.2-1
 _ZN15vpDisplayOpenCV12displayArrowERK12vpImagePointS2_RK7vpColorjjj@Base 2.6.2-1
 _ZN15vpDisplayOpenCV12displayCrossERK12vpImagePointjRK7vpColorj@Base 2.6.2-1
 _ZN15vpDisplayOpenCV12displayImageEPKh@Base 2.6.2-1
 _ZN15vpDisplayOpenCV12displayImageERK7vpImageI6vpRGBaE@Base 2.6.2-1
 _ZN15vpDisplayOpenCV12displayImageERK7vpImageIhE@Base 2.6.2-1
 _ZN15vpDisplayOpenCV12displayPointERK12vpImagePointRK7vpColor@Base 2.6.2-1
 _ZN15vpDisplayOpenCV12flushDisplayEv@Base 2.6.2-1
 _ZN15vpDisplayOpenCV13displayCircleERK12vpImagePointjRK7vpColorbj@Base 2.6.2-1
 _ZN15vpDisplayOpenCV14displayDotLineERK12vpImagePointS2_RK7vpColorj@Base 2.6.2-1
 _ZN15vpDisplayOpenCV15displayImageROIERK7vpImageI6vpRGBaERK12vpImagePointjj@Base 2.6.2-1
 _ZN15vpDisplayOpenCV15displayImageROIERK7vpImageIhERK12vpImagePointjj@Base 2.6.2-1
 _ZN15vpDisplayOpenCV15flushDisplayROIERK12vpImagePointjj@Base 2.6.2-1
 _ZN15vpDisplayOpenCV16displayRectangleERK12vpImagePointS2_RK7vpColorbj@Base 2.6.2-1
 _ZN15vpDisplayOpenCV16displayRectangleERK12vpImagePointjjRK7vpColorbj@Base 2.6.2-1
 _ZN15vpDisplayOpenCV16displayRectangleERK6vpRectRK7vpColorbj@Base 2.6.2-1
 _ZN15vpDisplayOpenCV16getKeyboardEventEPcb@Base 2.6.2-1
 _ZN15vpDisplayOpenCV16getKeyboardEventEb@Base 2.6.2-1
 _ZN15vpDisplayOpenCV17displayCharStringERK12vpImagePointPKcRK7vpColor@Base 2.6.2-1
 _ZN15vpDisplayOpenCV17setWindowPositionEii@Base 2.6.2-1
 _ZN15vpDisplayOpenCV18getPointerPositionER12vpImagePoint@Base 2.6.2-1
 _ZN15vpDisplayOpenCV21getPointerMotionEventER12vpImagePoint@Base 2.6.2-1
 _ZN15vpDisplayOpenCV4initER7vpImageI6vpRGBaEiiPKc@Base 2.6.2-1
 _ZN15vpDisplayOpenCV4initER7vpImageIhEiiPKc@Base 2.6.2-1
 _ZN15vpDisplayOpenCV4initEjjiiPKc@Base 2.6.2-1
 _ZN15vpDisplayOpenCV5countE@Base 2.6.2-1
 _ZN15vpDisplayOpenCV7setFontEPKc@Base 2.6.2-1
 _ZN15vpDisplayOpenCV8getClickER12vpImagePointRN13vpMouseButton17vpMouseButtonTypeEb@Base 2.6.2-1
 _ZN15vpDisplayOpenCV8getClickER12vpImagePointb@Base 2.6.2-1
 _ZN15vpDisplayOpenCV8getClickEb@Base 2.6.2-1
 _ZN15vpDisplayOpenCV8getImageER7vpImageI6vpRGBaE@Base 2.6.2-1
 _ZN15vpDisplayOpenCV8on_mouseEiiiiPv@Base 2.6.2-1
 _ZN15vpDisplayOpenCV8setTitleEPKc@Base 2.6.2-1
 _ZN15vpDisplayOpenCVC1ER7vpImageI6vpRGBaEiiPKc@Base 2.6.2-1
 _ZN15vpDisplayOpenCVC1ER7vpImageIhEiiPKc@Base 2.6.2-1
 _ZN15vpDisplayOpenCVC1EiiPKc@Base 2.6.2-1
 _ZN15vpDisplayOpenCVC1Ev@Base 2.6.2-1
 _ZN15vpDisplayOpenCVC2ER7vpImageI6vpRGBaEiiPKc@Base 2.6.2-1
 _ZN15vpDisplayOpenCVC2ER7vpImageIhEiiPKc@Base 2.6.2-1
 _ZN15vpDisplayOpenCVC2EiiPKc@Base 2.6.2-1
 _ZN15vpDisplayOpenCVC2Ev@Base 2.6.2-1
 _ZN15vpDisplayOpenCVD0Ev@Base 2.6.2-1
 _ZN15vpDisplayOpenCVD1Ev@Base 2.6.2-1
 _ZN15vpDisplayOpenCVD2Ev@Base 2.6.2-1
 _ZN15vpFeatureMoment11interactionEj@Base 2.6.2-1
 _ZN15vpFeatureMoment19compute_interactionEv@Base 2.6.2-1
 _ZN15vpFeatureMoment4initEv@Base 2.6.2-1
 _ZN15vpFeatureMoment6linkToER23vpFeatureMomentDatabase@Base 2.6.2-1
 _ZN15vpFeatureMoment6updateEddd@Base 2.6.2-1
 _ZN15vpFeatureMomentD0Ev@Base 2.6.2-1
 _ZN15vpFeatureMomentD1Ev@Base 2.6.2-1
 _ZN15vpFeatureMomentD2Ev@Base 2.6.2-1
 _ZN15vpFeatureThetaU11interactionEj@Base 2.6.2-1
 _ZN15vpFeatureThetaU4initEv@Base 2.6.2-1
 _ZN15vpFeatureThetaU5errorERK14vpBasicFeaturej@Base 2.6.2-1
 _ZN15vpFeatureThetaU7set_TUxEd@Base 2.6.2-1
 _ZN15vpFeatureThetaU7set_TUyEd@Base 2.6.2-1
 _ZN15vpFeatureThetaU7set_TUzEd@Base 2.6.2-1
 _ZN15vpFeatureThetaU9buildFromER14vpThetaUVector@Base 2.6.2-1
 _ZN15vpFeatureThetaU9buildFromERK16vpRotationMatrix@Base 2.6.2-1
 _ZN15vpFeatureThetaU9buildFromERK19vpHomogeneousMatrix@Base 2.6.2-1
 _ZN15vpFeatureThetaUC1ENS_41vpFeatureThetaURotationRepresentationTypeE@Base 2.6.2-1
 _ZN15vpFeatureThetaUC1ER14vpThetaUVectorNS_41vpFeatureThetaURotationRepresentationTypeE@Base 2.6.2-1
 _ZN15vpFeatureThetaUC1ER16vpRotationMatrixNS_41vpFeatureThetaURotationRepresentationTypeE@Base 2.6.2-1
 _ZN15vpFeatureThetaUC1ER19vpHomogeneousMatrixNS_41vpFeatureThetaURotationRepresentationTypeE@Base 2.6.2-1
 _ZN15vpFeatureThetaUC2ENS_41vpFeatureThetaURotationRepresentationTypeE@Base 2.6.2-1
 _ZN15vpFeatureThetaUC2ER14vpThetaUVectorNS_41vpFeatureThetaURotationRepresentationTypeE@Base 2.6.2-1
 _ZN15vpFeatureThetaUC2ER16vpRotationMatrixNS_41vpFeatureThetaURotationRepresentationTypeE@Base 2.6.2-1
 _ZN15vpFeatureThetaUC2ER19vpHomogeneousMatrixNS_41vpFeatureThetaURotationRepresentationTypeE@Base 2.6.2-1
 _ZN15vpFeatureThetaUD0Ev@Base 2.6.2-1
 _ZN15vpFeatureThetaUD1Ev@Base 2.6.2-1
 _ZN15vpFeatureThetaUD2Ev@Base 2.6.2-1
 _ZN15vpHistogramPeakC1ERKS_@Base 2.6.2-1
 _ZN15vpHistogramPeakC1Ehj@Base 2.6.2-1
 _ZN15vpHistogramPeakC1Ev@Base 2.6.2-1
 _ZN15vpHistogramPeakC2ERKS_@Base 2.6.2-1
 _ZN15vpHistogramPeakC2Ehj@Base 2.6.2-1
 _ZN15vpHistogramPeakC2Ev@Base 2.6.2-1
 _ZN15vpHistogramPeakaSERKS_@Base 2.6.2-1
 _ZN15vpMbEdgeTracker10addPolygonER12vpMbtPolygon@Base 2.6.2-1
 _ZN15vpMbEdgeTracker10computeVVSERK7vpImageIhE@Base 2.6.2-1
 _ZN15vpMbEdgeTracker10getPolygonEj@Base 2.6.2-1
 _ZN15vpMbEdgeTracker10removeLineERKSs@Base 2.6.2-1
 _ZN15vpMbEdgeTracker11addCylinderERK7vpPointS2_dRKSs@Base 2.6.2-1
 _ZN15vpMbEdgeTracker11getNbPointsEj@Base 2.6.2-1
 _ZN15vpMbEdgeTracker11initPyramidERK7vpImageIhERSt6vectorIPS2_SaIS5_EE@Base 2.6.2-1
 _ZN15vpMbEdgeTracker11reInitLevelEj@Base 2.6.2-1
 _ZN15vpMbEdgeTracker11reInitModelERK7vpImageIhEPKcRK19vpHomogeneousMatrix@Base 2.6.2-1
 _ZN15vpMbEdgeTracker11visibleFaceERK19vpHomogeneousMatrixRb@Base 2.6.2-1
 _ZN15vpMbEdgeTracker12cleanPyramidERSt6vectorIPK7vpImageIhESaIS4_EE@Base 2.6.2-1
 _ZN15vpMbEdgeTracker12getLcylinderERSt4listIP21vpMbtDistanceCylinderSaIS2_EEj@Base 2.6.2-1
 _ZN15vpMbEdgeTracker12getLcylinderEj@Base 2.6.2-1
 _ZN15vpMbEdgeTracker12getNbPolygonEv@Base 2.6.2-1
 _ZN15vpMbEdgeTracker12initCylinderERK7vpPointS0_dj@Base 2.6.2-1
 _ZN15vpMbEdgeTracker12resetTrackerEv@Base 2.6.2-1
 _ZN15vpMbEdgeTracker12testTrackingEv@Base 2.6.2-1
 _ZN15vpMbEdgeTracker13setMovingEdgeERK4vpMe@Base 2.6.2-1
 _ZN15vpMbEdgeTracker14initMovingEdgeERK7vpImageIhERK19vpHomogeneousMatrix@Base 2.6.2-1
 _ZN15vpMbEdgeTracker14loadConfigFileEPKc@Base 2.6.2-1
 _ZN15vpMbEdgeTracker14loadConfigFileERKSs@Base 2.6.2-1
 _ZN15vpMbEdgeTracker14removeCylinderERKSs@Base 2.6.2-1
 _ZN15vpMbEdgeTracker15trackMovingEdgeERK7vpImageIhE@Base 2.6.2-1
 _ZN15vpMbEdgeTracker16reinitMovingEdgeERK7vpImageIhERK19vpHomogeneousMatrix@Base 2.6.2-1
 _ZN15vpMbEdgeTracker16updateMovingEdgeERK7vpImageIhE@Base 2.6.2-1
 _ZN15vpMbEdgeTracker19initFaceFromCornersERKSt6vectorI7vpPointSaIS1_EEj@Base 2.6.2-1
 _ZN15vpMbEdgeTracker19setCameraParametersERK18vpCameraParameters@Base 2.6.2-1
 _ZN15vpMbEdgeTracker4initERK7vpImageIhE@Base 2.6.2-1
 _ZN15vpMbEdgeTracker4initERK7vpImageIhERK19vpHomogeneousMatrix@Base 2.6.2-1
 _ZN15vpMbEdgeTracker5trackERK7vpImageIhE@Base 2.6.2-1
 _ZN15vpMbEdgeTracker7addLineER7vpPointS1_iSs@Base 2.6.2-1
 _ZN15vpMbEdgeTracker7displayERK7vpImageI6vpRGBaERK19vpHomogeneousMatrixRK18vpCameraParametersRK7vpColorjb@Base 2.6.2-1
 _ZN15vpMbEdgeTracker7displayERK7vpImageIhERK19vpHomogeneousMatrixRK18vpCameraParametersRK7vpColorjb@Base 2.6.2-1
 _ZN15vpMbEdgeTracker7upScaleEj@Base 2.6.2-1
 _ZN15vpMbEdgeTracker8getLlineERSt4listIP17vpMbtDistanceLineSaIS2_EEj@Base 2.6.2-1
 _ZN15vpMbEdgeTracker8getLlineEj@Base 2.6.2-1
 _ZN15vpMbEdgeTracker9downScaleEj@Base 2.6.2-1
 _ZN15vpMbEdgeTracker9loadModelEPKc@Base 2.6.2-1
 _ZN15vpMbEdgeTracker9loadModelERKSs@Base 2.6.2-1
 _ZN15vpMbEdgeTracker9setScalesERKSt6vectorIbSaIbEE@Base 2.6.2-1
 _ZN15vpMbEdgeTrackerC1Ev@Base 2.6.2-1
 _ZN15vpMbEdgeTrackerC2Ev@Base 2.6.2-1
 _ZN15vpMbEdgeTrackerD0Ev@Base 2.6.2-1
 _ZN15vpMbEdgeTrackerD1Ev@Base 2.6.2-1
 _ZN15vpMbEdgeTrackerD2Ev@Base 2.6.2-1
 _ZN15vpOpenCVGrabber12getFramerateERd@Base 2.6.2-1
 _ZN15vpOpenCVGrabber12setFramerateEd@Base 2.6.2-1
 _ZN15vpOpenCVGrabber13setDeviceTypeEi@Base 2.6.2-1
 _ZN15vpOpenCVGrabber4openER7vpImageI6vpRGBaE@Base 2.6.2-1
 _ZN15vpOpenCVGrabber4openER7vpImageIhE@Base 2.6.2-1
 _ZN15vpOpenCVGrabber4openEv@Base 2.6.2-1
 _ZN15vpOpenCVGrabber5closeEv@Base 2.6.2-1
 _ZN15vpOpenCVGrabber7acquireER7vpImageI6vpRGBaE@Base 2.6.2-1
 _ZN15vpOpenCVGrabber7acquireER7vpImageIhE@Base 2.6.2-1
 _ZN15vpOpenCVGrabber7acquireEv@Base 2.6.2-1
 _ZN15vpOpenCVGrabber7setFlipEb@Base 2.6.2-1
 _ZN15vpOpenCVGrabber8setWidthEj@Base 2.6.2-1
 _ZN15vpOpenCVGrabber9setHeightEj@Base 2.6.2-1
 _ZN15vpOpenCVGrabberC1Ev@Base 2.6.2-1
 _ZN15vpOpenCVGrabberC2Ev@Base 2.6.2-1
 _ZN15vpOpenCVGrabberD0Ev@Base 2.6.2-1
 _ZN15vpOpenCVGrabberD1Ev@Base 2.6.2-1
 _ZN15vpOpenCVGrabberD2Ev@Base 2.6.2-1
 _ZN15vpPoseExceptionC1EiPKc@Base 2.6.2-1
 _ZN15vpPoseExceptionC2EiPKc@Base 2.6.2-1
 _ZN15vpPoseExceptionD0Ev@Base 2.6.2-1
 _ZN15vpPoseExceptionD1Ev@Base 2.6.2-1
 _ZN15vpPoseExceptionD2Ev@Base 2.6.2-1
 _ZN15vpRobotTemplate11getPositionEN7vpRobot18vpControlFrameTypeER11vpColVector@Base 2.6.2-1
 _ZN15vpRobotTemplate11getPositionER12vpPoseVector@Base 2.6.2-1
 _ZN15vpRobotTemplate11setPositionEN7vpRobot18vpControlFrameTypeERK11vpColVector@Base 2.6.2-1
 _ZN15vpRobotTemplate11setVelocityEN7vpRobot18vpControlFrameTypeERK11vpColVector@Base 2.6.2-1
 _ZN15vpRobotTemplate15getDisplacementEN7vpRobot18vpControlFrameTypeER11vpColVector@Base 2.6.2-1
 _ZN15vpRobotTemplate18sendCameraVelocityERK11vpColVector@Base 2.6.2-1
 _ZN15vpRobotTemplate20getArticularPositionER11vpColVector@Base 2.6.2-1
 _ZN15vpRobotTemplate21getCameraDisplacementER11vpColVector@Base 2.6.2-1
 _ZN15vpRobotTemplate21sendArticularVelocityERK11vpColVector@Base 2.6.2-1
 _ZN15vpRobotTemplate24getArticularDisplacementER11vpColVector@Base 2.6.2-1
 _ZN15vpRobotTemplate4initEv@Base 2.6.2-1
 _ZN15vpRobotTemplate7get_eJeER8vpMatrix@Base 2.6.2-1
 _ZN15vpRobotTemplate7get_fJeER8vpMatrix@Base 2.6.2-1
 _ZN15vpRobotTemplateC1Ev@Base 2.6.2-1
 _ZN15vpRobotTemplateC2Ev@Base 2.6.2-1
 _ZN15vpRobotTemplateD0Ev@Base 2.6.2-1
 _ZN15vpRobotTemplateD1Ev@Base 2.6.2-1
 _ZN15vpRobotTemplateD2Ev@Base 2.6.2-1
 _ZN16vp1394TwoGrabber10initializeEb@Base 2.6.2-1
 _ZN16vp1394TwoGrabber10setCaptureE14dc1394switch_t@Base 2.6.2-1
 _ZN16vp1394TwoGrabber12getFramerateERNS_22vp1394TwoFramerateTypeE@Base 2.6.2-1
 _ZN16vp1394TwoGrabber12getVideoModeERNS_22vp1394TwoVideoModeTypeE@Base 2.6.2-1
 _ZN16vp1394TwoGrabber12setFramerateENS_22vp1394TwoFramerateTypeE@Base 2.6.2-1
 _ZN16vp1394TwoGrabber12setVideoModeENS_22vp1394TwoVideoModeTypeE@Base 2.6.2-1
 _ZN16vp1394TwoGrabber12strFramerateE@Base 2.6.2-1
 _ZN16vp1394TwoGrabber12strVideoModeE@Base 2.6.2-1
 _ZN16vp1394TwoGrabber13getNumCamerasERj@Base 2.6.2-1
 _ZN16vp1394TwoGrabber13getNumCamerasEv@Base 2.6.2-1
 _ZN16vp1394TwoGrabber13setFormat7ROIEjjjj@Base 2.6.2-1
 _ZN16vp1394TwoGrabber13setPanControlEj@Base 2.6.2-1
 _ZN16vp1394TwoGrabber14getColorCodingERNS_24vp1394TwoColorCodingTypeE@Base 2.6.2-1
 _ZN16vp1394TwoGrabber14setAutoShutterEjj@Base 2.6.2-1
 _ZN16vp1394TwoGrabber14setColorCodingENS_24vp1394TwoColorCodingTypeE@Base 2.6.2-1
 _ZN16vp1394TwoGrabber14strColorCodingE@Base 2.6.2-1
 _ZN16vp1394TwoGrabber15printCameraInfoEv@Base 2.6.2-1
 _ZN16vp1394TwoGrabber15setTransmissionE14dc1394switch_t@Base 2.6.2-1
 _ZN16vp1394TwoGrabber16framerate2stringENS_22vp1394TwoFramerateTypeE@Base 2.6.2-1
 _ZN16vp1394TwoGrabber16string2framerateESs@Base 2.6.2-1
 _ZN16vp1394TwoGrabber16string2videoModeESs@Base 2.6.2-1
 _ZN16vp1394TwoGrabber16videoMode2stringENS_22vp1394TwoVideoModeTypeE@Base 2.6.2-1
 _ZN16vp1394TwoGrabber17getParameterValueENS_23vp1394TwoParametersTypeE@Base 2.6.2-1
 _ZN16vp1394TwoGrabber17getRingBufferSizeEv@Base 2.6.2-1
 _ZN16vp1394TwoGrabber17setParameterValueENS_23vp1394TwoParametersTypeEj@Base 2.6.2-1
 _ZN16vp1394TwoGrabber17setRingBufferSizeEj@Base 2.6.2-1
 _ZN16vp1394TwoGrabber18colorCoding2stringENS_24vp1394TwoColorCodingTypeE@Base 2.6.2-1
 _ZN16vp1394TwoGrabber18isVideoModeFormat7ENS_22vp1394TwoVideoModeTypeE@Base 2.6.2-1
 _ZN16vp1394TwoGrabber18string2colorCodingESs@Base 2.6.2-1
 _ZN16vp1394TwoGrabber20isFramerateSupportedENS_22vp1394TwoVideoModeTypeENS_22vp1394TwoFramerateTypeE@Base 2.6.2-1
 _ZN16vp1394TwoGrabber20isVideoModeSupportedENS_22vp1394TwoVideoModeTypeE@Base 2.6.2-1
 _ZN16vp1394TwoGrabber21getFramerateSupportedENS_22vp1394TwoVideoModeTypeER6vpListINS_22vp1394TwoFramerateTypeEE@Base 2.6.2-1
 _ZN16vp1394TwoGrabber21getFramerateSupportedENS_22vp1394TwoVideoModeTypeERSt4listINS_22vp1394TwoFramerateTypeESaIS2_EE@Base 2.6.2-1
 _ZN16vp1394TwoGrabber21getVideoModeSupportedER6vpListINS_22vp1394TwoVideoModeTypeEE@Base 2.6.2-1
 _ZN16vp1394TwoGrabber21getVideoModeSupportedERSt4listINS_22vp1394TwoVideoModeTypeESaIS1_EE@Base 2.6.2-1
 _ZN16vp1394TwoGrabber22isColorCodingSupportedENS_22vp1394TwoVideoModeTypeENS_24vp1394TwoColorCodingTypeE@Base 2.6.2-1
 _ZN16vp1394TwoGrabber23getColorCodingSupportedENS_22vp1394TwoVideoModeTypeER6vpListINS_24vp1394TwoColorCodingTypeEE@Base 2.6.2-1
 _ZN16vp1394TwoGrabber23getColorCodingSupportedENS_22vp1394TwoVideoModeTypeERSt4listINS_24vp1394TwoColorCodingTypeESaIS2_EE@Base 2.6.2-1
 _ZN16vp1394TwoGrabber23setIsoTransmissionSpeedENS_21vp1394TwoIsoSpeedTypeE@Base 2.6.2-1
 _ZN16vp1394TwoGrabber4openER7vpImageI6vpRGBaE@Base 2.6.2-1
 _ZN16vp1394TwoGrabber4openER7vpImageIhE@Base 2.6.2-1
 _ZN16vp1394TwoGrabber4openEv@Base 2.6.2-1
 _ZN16vp1394TwoGrabber5closeEv@Base 2.6.2-1
 _ZN16vp1394TwoGrabber7acquireER7vpImageI6vpRGBaE@Base 2.6.2-1
 _ZN16vp1394TwoGrabber7acquireER7vpImageI6vpRGBaERmRj@Base 2.6.2-1
 _ZN16vp1394TwoGrabber7acquireER7vpImageIhE@Base 2.6.2-1
 _ZN16vp1394TwoGrabber7acquireER7vpImageIhERmRj@Base 2.6.2-1
 _ZN16vp1394TwoGrabber7dequeueER7vpImageI6vpRGBaE@Base 2.6.2-1
 _ZN16vp1394TwoGrabber7dequeueER7vpImageI6vpRGBaERmRj@Base 2.6.2-1
 _ZN16vp1394TwoGrabber7dequeueER7vpImageIhE@Base 2.6.2-1
 _ZN16vp1394TwoGrabber7dequeueER7vpImageIhERmRj@Base 2.6.2-1
 _ZN16vp1394TwoGrabber7dequeueEv@Base 2.6.2-1
 _ZN16vp1394TwoGrabber7enqueueEP20__dc1394_video_frame@Base 2.6.2-1
 _ZN16vp1394TwoGrabber7getGuidERm@Base 2.6.2-1
 _ZN16vp1394TwoGrabber7getGuidEv@Base 2.6.2-1
 _ZN16vp1394TwoGrabber7isColorEv@Base 2.6.2-1
 _ZN16vp1394TwoGrabber8getWidthERj@Base 2.6.2-1
 _ZN16vp1394TwoGrabber8getWidthEv@Base 2.6.2-1
 _ZN16vp1394TwoGrabber8resetBusEv@Base 2.6.2-1
 _ZN16vp1394TwoGrabber9getCameraERm@Base 2.6.2-1
 _ZN16vp1394TwoGrabber9getCameraEv@Base 2.6.2-1
 _ZN16vp1394TwoGrabber9getHeightERj@Base 2.6.2-1
 _ZN16vp1394TwoGrabber9getHeightEv@Base 2.6.2-1
 _ZN16vp1394TwoGrabber9setCameraEm@Base 2.6.2-1
 _ZN16vp1394TwoGrabberC1Eb@Base 2.6.2-1
 _ZN16vp1394TwoGrabberC2Eb@Base 2.6.2-1
 _ZN16vp1394TwoGrabberD0Ev@Base 2.6.2-1
 _ZN16vp1394TwoGrabberD1Ev@Base 2.6.2-1
 _ZN16vp1394TwoGrabberD2Ev@Base 2.6.2-1
 _ZN16vpAdaptativeGain11setConstantEv@Base 2.6.2-1
 _ZN16vpAdaptativeGain12initFromVoidEv@Base 2.6.2-1
 _ZN16vpAdaptativeGain12initStandardEddd@Base 2.6.2-1
 _ZN16vpAdaptativeGain16initFromConstantEd@Base 2.6.2-1
 _ZN16vpAdaptativeGain19DEFAULT_LAMBDA_ZEROE@Base 2.6.2-1
 _ZN16vpAdaptativeGain20DEFAULT_LAMBDA_PENTEE@Base 2.6.2-1
 _ZN16vpAdaptativeGain21DEFAULT_LAMBDA_INFINIE@Base 2.6.2-1
 _ZN16vpAdaptativeGainC1Ev@Base 2.6.2-1
 _ZN16vpAdaptativeGainC2Ev@Base 2.6.2-1
 _ZN16vpExponentialMap6directERK11vpColVector@Base 2.6.2-1
 _ZN16vpExponentialMap6directERK11vpColVectorRKd@Base 2.6.2-1
 _ZN16vpExponentialMap7inverseERK19vpHomogeneousMatrix@Base 2.6.2-1
 _ZN16vpExponentialMap7inverseERK19vpHomogeneousMatrixRKd@Base 2.6.2-1
 _ZN16vpFeatureBuilder6createER13vpFeatureLineRK10vpCylinderi@Base 2.6.2-1
 _ZN16vpFeatureBuilder6createER13vpFeatureLineRK18vpCameraParametersRK8vpMeLine@Base 2.6.2-1
 _ZN16vpFeatureBuilder6createER13vpFeatureLineRK6vpLine@Base 2.6.2-1
 _ZN16vpFeatureBuilder6createER14vpFeaturePointRK18vpCameraParametersRK12vpImagePoint@Base 2.6.2-1
 _ZN16vpFeatureBuilder6createER14vpFeaturePointRK18vpCameraParametersRK5vpDot@Base 2.6.2-1
 _ZN16vpFeatureBuilder6createER14vpFeaturePointRK18vpCameraParametersRK6vpDot2@Base 2.6.2-1
 _ZN16vpFeatureBuilder6createER14vpFeaturePointRK18vpCameraParametersS4_RK7vpPoint@Base 2.6.2-1
 _ZN16vpFeatureBuilder6createER14vpFeaturePointRK7vpPoint@Base 2.6.2-1
 _ZN16vpFeatureBuilder6createER16vpFeatureEllipseRK18vpCameraParametersRK11vpMeEllipse@Base 2.6.2-1
 _ZN16vpFeatureBuilder6createER16vpFeatureEllipseRK18vpCameraParametersRK5vpDot@Base 2.6.2-1
 _ZN16vpFeatureBuilder6createER16vpFeatureEllipseRK18vpCameraParametersRK6vpDot2@Base 2.6.2-1
 _ZN16vpFeatureBuilder6createER16vpFeatureEllipseRK8vpCircle@Base 2.6.2-1
 _ZN16vpFeatureBuilder6createER16vpFeatureEllipseRK8vpSphere@Base 2.6.2-1
 _ZN16vpFeatureBuilder6createER16vpFeaturePoint3DRK7vpPoint@Base 2.6.2-1
 _ZN16vpFeatureBuilder6createER16vpFeatureSegmentR7vpPointS3_@Base 2.6.2-1
 _ZN16vpFeatureBuilder6createER16vpFeatureSegmentRK18vpCameraParametersRK12vpImagePointS7_@Base 2.6.2-1
 _ZN16vpFeatureBuilder6createER16vpFeatureSegmentRK18vpCameraParametersRK5vpDotS7_@Base 2.6.2-1
 _ZN16vpFeatureBuilder6createER16vpFeatureSegmentRK18vpCameraParametersRK6vpDot2S7_@Base 2.6.2-1
 _ZN16vpFeatureBuilder6createER19vpFeaturePointPolarRK18vpCameraParametersRK12vpImagePoint@Base 2.6.2-1
 _ZN16vpFeatureBuilder6createER19vpFeaturePointPolarRK18vpCameraParametersRK5vpDot@Base 2.6.2-1
 _ZN16vpFeatureBuilder6createER19vpFeaturePointPolarRK18vpCameraParametersRK6vpDot2@Base 2.6.2-1
 _ZN16vpFeatureBuilder6createER19vpFeaturePointPolarRK18vpCameraParametersS4_RK7vpPoint@Base 2.6.2-1
 _ZN16vpFeatureBuilder6createER19vpFeaturePointPolarRK7vpPoint@Base 2.6.2-1
 _ZN16vpFeatureBuilder6createER23vpFeatureVanishingPointRK13vpFeatureLineS4_@Base 2.6.2-1
 _ZN16vpFeatureBuilder6createER23vpFeatureVanishingPointRK6vpLineS4_@Base 2.6.2-1
 _ZN16vpFeatureBuilder6createER23vpFeatureVanishingPointRK7vpPoint@Base 2.6.2-1
 _ZN16vpFeatureDisplay11displayLineEddRK18vpCameraParametersRK7vpImageI6vpRGBaERK7vpColorj@Base 2.6.2-1
 _ZN16vpFeatureDisplay11displayLineEddRK18vpCameraParametersRK7vpImageIhERK7vpColorj@Base 2.6.2-1
 _ZN16vpFeatureDisplay12displayPointEddRK18vpCameraParametersRK7vpImageI6vpRGBaERK7vpColorj@Base 2.6.2-1
 _ZN16vpFeatureDisplay12displayPointEddRK18vpCameraParametersRK7vpImageIhERK7vpColorj@Base 2.6.2-1
 _ZN16vpFeatureDisplay14displayEllipseEdddddRK18vpCameraParametersRK7vpImageI6vpRGBaERK7vpColorj@Base 2.6.2-1
 _ZN16vpFeatureDisplay14displayEllipseEdddddRK18vpCameraParametersRK7vpImageIhERK7vpColorj@Base 2.6.2-1
 _ZN16vpFeatureDisplay15displayCylinderEddddRK18vpCameraParametersRK7vpImageI6vpRGBaERK7vpColorj@Base 2.6.2-1
 _ZN16vpFeatureDisplay15displayCylinderEddddRK18vpCameraParametersRK7vpImageIhERK7vpColorj@Base 2.6.2-1
 _ZN16vpFeatureEllipse11interactionEj@Base 2.6.2-1
 _ZN16vpFeatureEllipse4initEv@Base 2.6.2-1
 _ZN16vpFeatureEllipse5errorERK14vpBasicFeaturej@Base 2.6.2-1
 _ZN16vpFeatureEllipse5setMuEddd@Base 2.6.2-1
 _ZN16vpFeatureEllipse5set_xEd@Base 2.6.2-1
 _ZN16vpFeatureEllipse5set_yEd@Base 2.6.2-1
 _ZN16vpFeatureEllipse6setABCEddd@Base 2.6.2-1
 _ZN16vpFeatureEllipse6set_xyEdd@Base 2.6.2-1
 _ZN16vpFeatureEllipse9buildFromEddddd@Base 2.6.2-1
 _ZN16vpFeatureEllipse9buildFromEdddddddd@Base 2.6.2-1
 _ZN16vpFeatureEllipseC1Ev@Base 2.6.2-1
 _ZN16vpFeatureEllipseC2Ev@Base 2.6.2-1
 _ZN16vpFeatureEllipseD0Ev@Base 2.6.2-1
 _ZN16vpFeatureEllipseD1Ev@Base 2.6.2-1
 _ZN16vpFeatureEllipseD2Ev@Base 2.6.2-1
 _ZN16vpFeaturePoint3D11interactionEj@Base 2.6.2-1
 _ZN16vpFeaturePoint3D4initEv@Base 2.6.2-1
 _ZN16vpFeaturePoint3D5errorERK14vpBasicFeaturej@Base 2.6.2-1
 _ZN16vpFeaturePoint3D5set_XEd@Base 2.6.2-1
 _ZN16vpFeaturePoint3D5set_YEd@Base 2.6.2-1
 _ZN16vpFeaturePoint3D5set_ZEd@Base 2.6.2-1
 _ZN16vpFeaturePoint3D7set_XYZEddd@Base 2.6.2-1
 _ZN16vpFeaturePoint3D9buildFromERK7vpPoint@Base 2.6.2-1
 _ZN16vpFeaturePoint3D9buildFromEddd@Base 2.6.2-1
 _ZN16vpFeaturePoint3DC1Ev@Base 2.6.2-1
 _ZN16vpFeaturePoint3DC2Ev@Base 2.6.2-1
 _ZN16vpFeaturePoint3DD0Ev@Base 2.6.2-1
 _ZN16vpFeaturePoint3DD1Ev@Base 2.6.2-1
 _ZN16vpFeaturePoint3DD2Ev@Base 2.6.2-1
 _ZN16vpFeatureSegment11interactionEj@Base 2.6.2-1
 _ZN16vpFeatureSegment4initEv@Base 2.6.2-1
 _ZN16vpFeatureSegment5errorERK14vpBasicFeaturej@Base 2.6.2-1
 _ZN16vpFeatureSegment9buildFromEdddddd@Base 2.6.2-1
 _ZN16vpFeatureSegmentC1Eb@Base 2.6.2-1
 _ZN16vpFeatureSegmentC2Eb@Base 2.6.2-1
 _ZN16vpFeatureSegmentD0Ev@Base 2.6.2-1
 _ZN16vpFeatureSegmentD1Ev@Base 2.6.2-1
 _ZN16vpFeatureSegmentD2Ev@Base 2.6.2-1
 _ZN16vpFernClassifier10matchPointERK7vpImageIhE@Base 2.6.2-1
 _ZN16vpFernClassifier10matchPointERK7vpImageIhERK12vpImagePointjj@Base 2.6.2-1
 _ZN16vpFernClassifier10matchPointERK7vpImageIhERK6vpRect@Base 2.6.2-1
 _ZN16vpFernClassifier14buildReferenceERK7vpImageIhE@Base 2.6.2-1
 _ZN16vpFernClassifier14buildReferenceERK7vpImageIhERK12vpImagePointjj@Base 2.6.2-1
 _ZN16vpFernClassifier14buildReferenceERK7vpImageIhERK6vpRect@Base 2.6.2-1
 _ZN16vpFernClassifier4initEv@Base 2.6.2-1
 _ZN16vpFernClassifier4loadERKSsS1_@Base 2.6.2-1
 _ZN16vpFernClassifier5trainEv@Base 2.6.2-1
 _ZN16vpFernClassifier6recordERKSsS1_@Base 2.6.2-1
 _ZN16vpFernClassifier7displayERK7vpImageIhES3_j@Base 2.6.2-1
 _ZN16vpFernClassifier7displayERK7vpImageIhEjRK7vpColor@Base 2.6.2-1
 _ZN16vpFernClassifier8setImageERK7vpImageIhE@Base 2.6.2-1
 _ZN16vpFernClassifierC1ERKSsS1_@Base 2.6.2-1
 _ZN16vpFernClassifierC1Ev@Base 2.6.2-1
 _ZN16vpFernClassifierC2ERKSsS1_@Base 2.6.2-1
 _ZN16vpFernClassifierC2Ev@Base 2.6.2-1
 _ZN16vpFernClassifierD0Ev@Base 2.6.2-1
 _ZN16vpFernClassifierD1Ev@Base 2.6.2-1
 _ZN16vpFernClassifierD2Ev@Base 2.6.2-1
 _ZN16vpGenericFeature11interactionEj@Base 2.6.2-1
 _ZN16vpGenericFeature20setInteractionMatrixERK8vpMatrix@Base 2.6.2-1
 _ZN16vpGenericFeature4initEv@Base 2.6.2-1
 _ZN16vpGenericFeature5errorERK14vpBasicFeaturej@Base 2.6.2-1
 _ZN16vpGenericFeature5errorEj@Base 2.6.2-1
 _ZN16vpGenericFeature5set_sERK11vpColVector@Base 2.6.2-1
 _ZN16vpGenericFeature5set_sEd@Base 2.6.2-1
 _ZN16vpGenericFeature5set_sEdd@Base 2.6.2-1
 _ZN16vpGenericFeature5set_sEddd@Base 2.6.2-1
 _ZN16vpGenericFeature8setErrorER11vpColVector@Base 2.6.2-1
 _ZN16vpGenericFeatureC1Ej@Base 2.6.2-1
 _ZN16vpGenericFeatureC1Ev@Base 2.6.2-1
 _ZN16vpGenericFeatureC2Ej@Base 2.6.2-1
 _ZN16vpGenericFeatureC2Ev@Base 2.6.2-1
 _ZN16vpGenericFeatureD0Ev@Base 2.6.2-1
 _ZN16vpGenericFeatureD1Ev@Base 2.6.2-1
 _ZN16vpGenericFeatureD2Ev@Base 2.6.2-1
 _ZN16vpHistogramValeyaSERKS_@Base 2.6.2-1
 _ZN16vpImageExceptionC1EiPKc@Base 2.6.2-1
 _ZN16vpImageExceptionC2EiPKc@Base 2.6.2-1
 _ZN16vpImageExceptionD0Ev@Base 2.6.2-1
 _ZN16vpImageExceptionD1Ev@Base 2.6.2-1
 _ZN16vpImageExceptionD2Ev@Base 2.6.2-1
 _ZN16vpImageSimulator13getHomogCoordERK11vpColVectorRS0_@Base 2.6.2-1
 _ZN16vpImageSimulator13getPixelDepthERK12vpImagePointRd@Base 2.6.2-1
 _ZN16vpImageSimulator17getCoordFromHomogERK11vpColVectorRS0_@Base 2.6.2-1
 _ZN16vpImageSimulator17setCameraPositionERK19vpHomogeneousMatrix@Base 2.6.2-1
 _ZN16vpImageSimulator18getPixelVisibilityERK12vpImagePointRd@Base 2.6.2-1
 _ZN16vpImageSimulator4initEPKcP11vpColVector@Base 2.6.2-1
 _ZN16vpImageSimulator4initEPKcRKSt6vectorI7vpPointSaIS3_EE@Base 2.6.2-1
 _ZN16vpImageSimulator4initERK7vpImageI6vpRGBaEP11vpColVector@Base 2.6.2-1
 _ZN16vpImageSimulator4initERK7vpImageI6vpRGBaERKSt6vectorI7vpPointSaIS6_EE@Base 2.6.2-1
 _ZN16vpImageSimulator4initERK7vpImageIhEP11vpColVector@Base 2.6.2-1
 _ZN16vpImageSimulator4initERK7vpImageIhERKSt6vectorI7vpPointSaIS5_EE@Base 2.6.2-1
 _ZN16vpImageSimulator6getRoiERKjS1_RK18vpCameraParametersP7vpPointR6vpRect@Base 2.6.2-1
 _ZN16vpImageSimulator7projectERK11vpColVectorRK19vpHomogeneousMatrixRS0_@Base 2.6.2-1
 _ZN16vpImageSimulator8getImageER7vpImageI6vpRGBaER6vpListIS_ERK18vpCameraParameters@Base 2.6.2-1
 _ZN16vpImageSimulator8getImageER7vpImageI6vpRGBaERK18vpCameraParameters@Base 2.6.2-1
 _ZN16vpImageSimulator8getImageER7vpImageI6vpRGBaERK18vpCameraParametersR8vpMatrix@Base 2.6.2-1
 _ZN16vpImageSimulator8getImageER7vpImageI6vpRGBaERSt4listIS_SaIS_EERK18vpCameraParameters@Base 2.6.2-1
 _ZN16vpImageSimulator8getImageER7vpImageI6vpRGBaES3_RK18vpCameraParameters@Base 2.6.2-1
 _ZN16vpImageSimulator8getImageER7vpImageIhER6vpListIS_ERK18vpCameraParameters@Base 2.6.2-1
 _ZN16vpImageSimulator8getImageER7vpImageIhERK18vpCameraParameters@Base 2.6.2-1
 _ZN16vpImageSimulator8getImageER7vpImageIhERK18vpCameraParametersR8vpMatrix@Base 2.6.2-1
 _ZN16vpImageSimulator8getImageER7vpImageIhERSt4listIS_SaIS_EERK18vpCameraParameters@Base 2.6.2-1
 _ZN16vpImageSimulator8getImageER7vpImageIhES2_RK18vpCameraParameters@Base 2.6.2-1
 _ZN16vpImageSimulator8getPixelER7vpImageI6vpRGBaERK12vpImagePointRS1_@Base 2.6.2-1
 _ZN16vpImageSimulator8getPixelER7vpImageIhERK12vpImagePointRh@Base 2.6.2-1
 _ZN16vpImageSimulator8getPixelERK12vpImagePointR6vpRGBa@Base 2.6.2-1
 _ZN16vpImageSimulator8getPixelERK12vpImagePointRh@Base 2.6.2-1
 _ZN16vpImageSimulator8initPlanEP11vpColVector@Base 2.6.2-1
 _ZN16vpImageSimulatorC1ERKNS_11vpColorPlanE@Base 2.6.2-1
 _ZN16vpImageSimulatorC1ERKS_@Base 2.6.2-1
 _ZN16vpImageSimulatorC2ERKNS_11vpColorPlanE@Base 2.6.2-1
 _ZN16vpImageSimulatorC2ERKS_@Base 2.6.2-1
 _ZN16vpImageSimulatorD0Ev@Base 2.6.2-1
 _ZN16vpImageSimulatorD1Ev@Base 2.6.2-1
 _ZN16vpImageSimulatorD2Ev@Base 2.6.2-1
 _ZN16vpImageSimulatoraSERKS_@Base 2.6.2-1
 _ZN16vpMbtHiddenFaces10addPolygonEP12vpMbtPolygon@Base 2.6.2-1
 _ZN16vpMbtHiddenFaces10setVisibleERK19vpHomogeneousMatrix@Base 2.6.2-1
 _ZN16vpMbtHiddenFaces11isAppearingEi@Base 2.6.2-1
 _ZN16vpMbtHiddenFaces5resetEv@Base 2.6.2-1
 _ZN16vpMbtHiddenFaces9isVisibleEi@Base 2.6.2-1
 _ZN16vpMbtHiddenFacesC1Ev@Base 2.6.2-1
 _ZN16vpMbtHiddenFacesC2Ev@Base 2.6.2-1
 _ZN16vpMbtHiddenFacesD1Ev@Base 2.6.2-1
 _ZN16vpMbtHiddenFacesD2Ev@Base 2.6.2-1
 _ZN16vpMomentCentered3getEjj@Base 2.6.2-1
 _ZN16vpMomentCentered4nameEv@Base 2.6.2-1
 _ZN16vpMomentCentered7computeEv@Base 2.6.2-1
 _ZN16vpMomentCenteredC1Ev@Base 2.6.2-1
 _ZN16vpMomentCenteredC2Ev@Base 2.6.2-1
 _ZN16vpMomentCenteredD0Ev@Base 2.6.2-1
 _ZN16vpMomentCenteredD1Ev@Base 2.6.2-1
 _ZN16vpMomentCenteredD2Ev@Base 2.6.2-1
 _ZN16vpMomentDatabase3addER8vpMomentPKc@Base 2.6.2-1
 _ZN16vpMomentDatabase3getEPKcRb@Base 2.6.2-1
 _ZN16vpMomentDatabase9updateAllER14vpMomentObject@Base 2.6.2-1
 _ZN16vpMomentDatabaseD0Ev@Base 2.6.2-1
 _ZN16vpMomentDatabaseD1Ev@Base 2.6.2-1
 _ZN16vpMomentDatabaseD2Ev@Base 2.6.2-1
 _ZN16vpRobotExceptionC1EiPKc@Base 2.6.2-1
 _ZN16vpRobotExceptionC2EiPKc@Base 2.6.2-1
 _ZN16vpRobotExceptionD0Ev@Base 2.6.2-1
 _ZN16vpRobotExceptionD1Ev@Base 2.6.2-1
 _ZN16vpRobotExceptionD2Ev@Base 2.6.2-1
 _ZN16vpRobotSimulator15getInternalViewER7vpImageI6vpRGBaE@Base 2.6.2-1
 _ZN16vpRobotSimulator15getInternalViewER7vpImageIhE@Base 2.6.2-1
 _ZN16vpRobotSimulator4initEv@Base 2.6.2-1
 _ZN16vpRobotSimulator7get_cMoEv@Base 2.6.2-1
 _ZN16vpRobotSimulator8launcherEPv@Base 2.6.2-1
 _ZN16vpRobotSimulator9initSceneEN20vpWireFrameSimulator13vpSceneObjectE@Base 2.6.2-1
 _ZN16vpRobotSimulator9initSceneEN20vpWireFrameSimulator13vpSceneObjectENS0_20vpSceneDesiredObjectE@Base 2.6.2-1
 _ZN16vpRobotSimulator9initSceneEPKc@Base 2.6.2-1
 _ZN16vpRobotSimulator9initSceneEPKcS1_@Base 2.6.2-1
 _ZN16vpRobotSimulatorC1Eb@Base 2.6.2-1
 _ZN16vpRobotSimulatorC1Ev@Base 2.6.2-1
 _ZN16vpRobotSimulatorC2Eb@Base 2.6.2-1
 _ZN16vpRobotSimulatorC2Ev@Base 2.6.2-1
 _ZN16vpRobotSimulatorD0Ev@Base 2.6.2-1
 _ZN16vpRobotSimulatorD1Ev@Base 2.6.2-1
 _ZN16vpRobotSimulatorD2Ev@Base 2.6.2-1
 _ZN16vpRotationMatrix11printVectorEv@Base 2.6.2-1
 _ZN16vpRotationMatrix11setIdentityEv@Base 2.6.2-1
 _ZN16vpRotationMatrix3eyeEv@Base 2.6.2-1
 _ZN16vpRotationMatrix4initEv@Base 2.6.2-1
 _ZN16vpRotationMatrix7minimumE@Base 2.6.2-1
 _ZN16vpRotationMatrix9buildFromERK12vpRxyzVector@Base 2.6.2-1
 _ZN16vpRotationMatrix9buildFromERK12vpRzyxVector@Base 2.6.2-1
 _ZN16vpRotationMatrix9buildFromERK12vpRzyzVector@Base 2.6.2-1
 _ZN16vpRotationMatrix9buildFromERK14vpThetaUVector@Base 2.6.2-1
 _ZN16vpRotationMatrix9buildFromERK18vpQuaternionVector@Base 2.6.2-1
 _ZN16vpRotationMatrix9buildFromEddd@Base 2.6.2-1
 _ZN16vpRotationMatrix9thresholdE@Base 2.6.2-1
 _ZN16vpRotationMatrixC1ERK12vpRxyzVector@Base 2.6.2-1
 _ZN16vpRotationMatrixC1ERK12vpRzyxVector@Base 2.6.2-1
 _ZN16vpRotationMatrixC1ERK12vpRzyzVector@Base 2.6.2-1
 _ZN16vpRotationMatrixC1ERK14vpThetaUVector@Base 2.6.2-1
 _ZN16vpRotationMatrixC1ERK18vpQuaternionVector@Base 2.6.2-1
 _ZN16vpRotationMatrixC1ERKS_@Base 2.6.2-1
 _ZN16vpRotationMatrixC1Eddd@Base 2.6.2-1
 _ZN16vpRotationMatrixC1Ev@Base 2.6.2-1
 _ZN16vpRotationMatrixC2ERK12vpRxyzVector@Base 2.6.2-1
 _ZN16vpRotationMatrixC2ERK12vpRzyxVector@Base 2.6.2-1
 _ZN16vpRotationMatrixC2ERK12vpRzyzVector@Base 2.6.2-1
 _ZN16vpRotationMatrixC2ERK14vpThetaUVector@Base 2.6.2-1
 _ZN16vpRotationMatrixC2ERK18vpQuaternionVector@Base 2.6.2-1
 _ZN16vpRotationMatrixC2ERKS_@Base 2.6.2-1
 _ZN16vpRotationMatrixC2Eddd@Base 2.6.2-1
 _ZN16vpRotationMatrixC2Ev@Base 2.6.2-1
 _ZN16vpRotationMatrixD0Ev@Base 2.6.2-1
 _ZN16vpRotationMatrixD1Ev@Base 2.6.2-1
 _ZN16vpRotationMatrixD2Ev@Base 2.6.2-1
 _ZN16vpRotationMatrixaSERK8vpMatrix@Base 2.6.2-1
 _ZN16vpRotationMatrixaSERKS_@Base 2.6.2-1
 _ZN16vpRotationVector4initEj@Base 2.6.2-1
 _ZN16vpRotationVectorD1Ev@Base 2.6.2-1
 _ZN16vpRotationVectorD2Ev@Base 2.6.2-1
 _ZN16vpServoExceptionC1EiPKc@Base 2.6.2-1
 _ZN16vpServoExceptionC2EiPKc@Base 2.6.2-1
 _ZN16vpServoExceptionD0Ev@Base 2.6.2-1
 _ZN16vpServoExceptionD1Ev@Base 2.6.2-1
 _ZN16vpServoExceptionD2Ev@Base 2.6.2-1
 _ZN16vpSimulatorAfma610stopMotionEv@Base 2.6.2-1
 _ZN16vpSimulatorAfma611compute_fMiEv@Base 2.6.2-1
 _ZN16vpSimulatorAfma611getPositionEN7vpRobot18vpControlFrameTypeER11vpColVector@Base 2.6.2-1
 _ZN16vpSimulatorAfma611getPositionEN7vpRobot18vpControlFrameTypeER12vpPoseVector@Base 2.6.2-1
 _ZN16vpSimulatorAfma611getVelocityEN7vpRobot18vpControlFrameTypeE@Base 2.6.2-1
 _ZN16vpSimulatorAfma611getVelocityEN7vpRobot18vpControlFrameTypeER11vpColVector@Base 2.6.2-1
 _ZN16vpSimulatorAfma611initDisplayEv@Base 2.6.2-1
 _ZN16vpSimulatorAfma611readPosFileEPKcR11vpColVector@Base 2.6.2-1
 _ZN16vpSimulatorAfma611savePosFileEPKcRK11vpColVector@Base 2.6.2-1
 _ZN16vpSimulatorAfma611setPositionEN7vpRobot18vpControlFrameTypeERK11vpColVector@Base 2.6.2-1
 _ZN16vpSimulatorAfma611setPositionEN7vpRobot18vpControlFrameTypeEdddddd@Base 2.6.2-1
 _ZN16vpSimulatorAfma611setPositionEPKc@Base 2.6.2-1
 _ZN16vpSimulatorAfma611setPositionERK19vpHomogeneousMatrixP7vpImageIhERKd@Base 2.6.2-1
 _ZN16vpSimulatorAfma611setVelocityEN7vpRobot18vpControlFrameTypeERK11vpColVector@Base 2.6.2-1
 _ZN16vpSimulatorAfma613setJointLimitE11vpColVectorS0_@Base 2.6.2-1
 _ZN16vpSimulatorAfma613setRobotStateEN7vpRobot16vpRobotStateTypeE@Base 2.6.2-1
 _ZN16vpSimulatorAfma614isInJointLimitEv@Base 2.6.2-1
 _ZN16vpSimulatorAfma615getDisplacementEN7vpRobot18vpControlFrameTypeER11vpColVector@Base 2.6.2-1
 _ZN16vpSimulatorAfma615singularityTestE11vpColVectorR8vpMatrix@Base 2.6.2-1
 _ZN16vpSimulatorAfma616getExternalImageER7vpImageI6vpRGBaE@Base 2.6.2-1
 _ZN16vpSimulatorAfma619getCameraParametersER18vpCameraParametersRK7vpImageI6vpRGBaE@Base 2.6.2-1
 _ZN16vpSimulatorAfma619getCameraParametersER18vpCameraParametersRK7vpImageIhE@Base 2.6.2-1
 _ZN16vpSimulatorAfma619getCameraParametersER18vpCameraParametersRKjS3_@Base 2.6.2-1
 _ZN16vpSimulatorAfma619setCameraParametersE18vpCameraParameters@Base 2.6.2-1
 _ZN16vpSimulatorAfma621getCameraDisplacementER11vpColVector@Base 2.6.2-1
 _ZN16vpSimulatorAfma623updateArticularPositionEv@Base 2.6.2-1
 _ZN16vpSimulatorAfma624computeArticularVelocityEv@Base 2.6.2-1
 _ZN16vpSimulatorAfma624getArticularDisplacementER11vpColVector@Base 2.6.2-1
 _ZN16vpSimulatorAfma626defaultPositioningVelocityE@Base 2.6.2-1
 _ZN16vpSimulatorAfma627findHighestPositioningSpeedER11vpColVector@Base 2.6.2-1
 _ZN16vpSimulatorAfma632initialiseCameraRelativeToObjectE19vpHomogeneousMatrix@Base 2.6.2-1
 _ZN16vpSimulatorAfma632initialiseObjectRelativeToCameraE19vpHomogeneousMatrix@Base 2.6.2-1
 _ZN16vpSimulatorAfma64initEN7vpAfma615vpAfma6ToolTypeEN18vpCameraParameters26vpCameraParametersProjTypeE@Base 2.6.2-1
 _ZN16vpSimulatorAfma64initEv@Base 2.6.2-1
 _ZN16vpSimulatorAfma64moveEPKc@Base 2.6.2-1
 _ZN16vpSimulatorAfma67get_cMeER19vpHomogeneousMatrix@Base 2.6.2-1
 _ZN16vpSimulatorAfma67get_cVeER21vpVelocityTwistMatrix@Base 2.6.2-1
 _ZN16vpSimulatorAfma67get_eJeER8vpMatrix@Base 2.6.2-1
 _ZN16vpSimulatorAfma67get_fJeER8vpMatrix@Base 2.6.2-1
 _ZN16vpSimulatorAfma67get_fMiEP19vpHomogeneousMatrix@Base 2.6.2-1
 _ZN16vpSimulatorAfma68initArmsEv@Base 2.6.2-1
 _ZN16vpSimulatorAfma6C1Eb@Base 2.6.2-1
 _ZN16vpSimulatorAfma6C1Ev@Base 2.6.2-1
 _ZN16vpSimulatorAfma6C2Eb@Base 2.6.2-1
 _ZN16vpSimulatorAfma6C2Ev@Base 2.6.2-1
 _ZN16vpSimulatorAfma6D0Ev@Base 2.6.2-1
 _ZN16vpSimulatorAfma6D1Ev@Base 2.6.2-1
 _ZN16vpSimulatorAfma6D2Ev@Base 2.6.2-1
 _ZN17vpMatrixExceptionC1ERKS_@Base 2.6.2-1
 _ZN17vpMatrixExceptionC1Ei@Base 2.6.2-1
 _ZN17vpMatrixExceptionC1EiPKc@Base 2.6.2-1
 _ZN17vpMatrixExceptionC2ERKS_@Base 2.6.2-1
 _ZN17vpMatrixExceptionC2Ei@Base 2.6.2-1
 _ZN17vpMatrixExceptionC2EiPKc@Base 2.6.2-1
 _ZN17vpMatrixExceptionD0Ev@Base 2.6.2-1
 _ZN17vpMatrixExceptionD1Ev@Base 2.6.2-1
 _ZN17vpMatrixExceptionD2Ev@Base 2.6.2-1
 _ZN17vpMbtDistanceLine13setMovingEdgeEP4vpMe@Base 2.6.2-1
 _ZN17vpMbtDistanceLine14initMovingEdgeERK7vpImageIhERK19vpHomogeneousMatrix@Base 2.6.2-1
 _ZN17vpMbtDistanceLine15trackMovingEdgeERK7vpImageIhERK19vpHomogeneousMatrix@Base 2.6.2-1
 _ZN17vpMbtDistanceLine16reinitMovingEdgeERK7vpImageIhERK19vpHomogeneousMatrix@Base 2.6.2-1
 _ZN17vpMbtDistanceLine16updateMovingEdgeERK7vpImageIhERK19vpHomogeneousMatrix@Base 2.6.2-1
 _ZN17vpMbtDistanceLine18closeToImageBorderERK7vpImageIhEj@Base 2.6.2-1
 _ZN17vpMbtDistanceLine18displayMovingEdgesERK7vpImageIhE@Base 2.6.2-1
 _ZN17vpMbtDistanceLine26initInteractionMatrixErrorEv@Base 2.6.2-1
 _ZN17vpMbtDistanceLine29computeInteractionMatrixErrorERK19vpHomogeneousMatrix@Base 2.6.2-1
 _ZN17vpMbtDistanceLine7displayERK7vpImageI6vpRGBaERK19vpHomogeneousMatrixRK18vpCameraParameters7vpColorjb@Base 2.6.2-1
 _ZN17vpMbtDistanceLine7displayERK7vpImageIhERK19vpHomogeneousMatrixRK18vpCameraParameters7vpColorjb@Base 2.6.2-1
 _ZN17vpMbtDistanceLine7projectERK19vpHomogeneousMatrix@Base 2.6.2-1
 _ZN17vpMbtDistanceLine9buildFromER7vpPointS1_@Base 2.6.2-1
 _ZN17vpMbtDistanceLineC1Ev@Base 2.6.2-1
 _ZN17vpMbtDistanceLineC2Ev@Base 2.6.2-1
 _ZN17vpMbtDistanceLineD1Ev@Base 2.6.2-1
 _ZN17vpMbtDistanceLineD2Ev@Base 2.6.2-1
 _ZN17vpXmlParserCamera11find_cameraEP7_xmlDocP8_xmlNodeRKSsjjjj@Base 2.6.2-1
 _ZN17vpXmlParserCamera11read_cameraEP7_xmlDocP8_xmlNodeRKSsRKN18vpCameraParameters26vpCameraParametersProjTypeEjjjj@Base 2.6.2-1
 _ZN17vpXmlParserCamera11str2xmlcodeEPcRNS_13vpXmlCodeTypeE@Base 2.6.2-1
 _ZN17vpXmlParserCamera12write_cameraEP8_xmlNode@Base 2.6.2-1
 _ZN17vpXmlParserCamera13readMainClassEP7_xmlDocP8_xmlNode@Base 2.6.2-1
 _ZN17vpXmlParserCamera14writeMainClassEP8_xmlNode@Base 2.6.2-1
 _ZN17vpXmlParserCamera17read_camera_modelEP7_xmlDocP8_xmlNodeR18vpCameraParameters@Base 2.6.2-1
 _ZN17vpXmlParserCamera18read_camera_headerEP7_xmlDocP8_xmlNodeRKSsjjjj@Base 2.6.2-1
 _ZN17vpXmlParserCamera4readEP7_xmlDocP8_xmlNodeRKSsRKN18vpCameraParameters26vpCameraParametersProjTypeEjjjj@Base 2.6.2-1
 _ZN17vpXmlParserCamera4saveERK18vpCameraParametersPKcRKSsjj@Base 2.6.2-1
 _ZN17vpXmlParserCamera5countEP7_xmlDocP8_xmlNodeRKSsRKN18vpCameraParameters26vpCameraParametersProjTypeEjjjj@Base 2.6.2-1
 _ZN17vpXmlParserCamera5parseER18vpCameraParametersPKcRKSsRKNS0_26vpCameraParametersProjTypeEjj@Base 2.6.2-1
 _ZN17vpXmlParserCamera5writeEP8_xmlNodeRKSsjjjj@Base 2.6.2-1
 _ZN17vpXmlParserCameraC1ERS_@Base 2.6.2-1
 _ZN17vpXmlParserCameraC1Ev@Base 2.6.2-1
 _ZN17vpXmlParserCameraC2ERS_@Base 2.6.2-1
 _ZN17vpXmlParserCameraC2Ev@Base 2.6.2-1
 _ZN17vpXmlParserCameraD0Ev@Base 2.6.2-1
 _ZN17vpXmlParserCameraD1Ev@Base 2.6.2-1
 _ZN17vpXmlParserCameraD2Ev@Base 2.6.2-1
 _ZN17vpXmlParserCameraaSERKS_@Base 2.6.2-1
 _ZN18vpCameraParameters15printParametersEv@Base 2.6.2-1
 _ZN18vpCameraParameters17DEFAULT_PROJ_TYPEE@Base 2.6.2-1
 _ZN18vpCameraParameters20DEFAULT_PX_PARAMETERE@Base 2.6.2-1
 _ZN18vpCameraParameters20DEFAULT_PY_PARAMETERE@Base 2.6.2-1
 _ZN18vpCameraParameters20DEFAULT_U0_PARAMETERE@Base 2.6.2-1
 _ZN18vpCameraParameters20DEFAULT_V0_PARAMETERE@Base 2.6.2-1
 _ZN18vpCameraParameters21DEFAULT_KDU_PARAMETERE@Base 2.6.2-1
 _ZN18vpCameraParameters21DEFAULT_KUD_PARAMETERE@Base 2.6.2-1
 _ZN18vpCameraParameters25initFromCalibrationMatrixERK8vpMatrix@Base 2.6.2-1
 _ZN18vpCameraParameters26initPersProjWithDistortionEdddddd@Base 2.6.2-1
 _ZN18vpCameraParameters29initPersProjWithoutDistortionEdddd@Base 2.6.2-1
 _ZN18vpCameraParameters4initERKS_@Base 2.6.2-1
 _ZN18vpCameraParameters4initEv@Base 2.6.2-1
 _ZN18vpCameraParametersC1ERKS_@Base 2.6.2-1
 _ZN18vpCameraParametersC1Edddd@Base 2.6.2-1
 _ZN18vpCameraParametersC1Edddddd@Base 2.6.2-1
 _ZN18vpCameraParametersC1Ev@Base 2.6.2-1
 _ZN18vpCameraParametersC2ERKS_@Base 2.6.2-1
 _ZN18vpCameraParametersC2Edddd@Base 2.6.2-1
 _ZN18vpCameraParametersC2Edddddd@Base 2.6.2-1
 _ZN18vpCameraParametersC2Ev@Base 2.6.2-1
 _ZN18vpCameraParametersD0Ev@Base 2.6.2-1
 _ZN18vpCameraParametersD1Ev@Base 2.6.2-1
 _ZN18vpCameraParametersD2Ev@Base 2.6.2-1
 _ZN18vpCameraParametersaSERKS_@Base 2.6.2-1
 _ZN18vpDisplayExceptionC1EiPKc@Base 2.6.2-1
 _ZN18vpDisplayExceptionC2EiPKc@Base 2.6.2-1
 _ZN18vpDisplayExceptionD0Ev@Base 2.6.2-1
 _ZN18vpDisplayExceptionD1Ev@Base 2.6.2-1
 _ZN18vpDisplayExceptionD2Ev@Base 2.6.2-1
 _ZN18vpFeatureExceptionC1EiPKc@Base 2.6.2-1
 _ZN18vpFeatureExceptionC2EiPKc@Base 2.6.2-1
 _ZN18vpFeatureExceptionD0Ev@Base 2.6.2-1
 _ZN18vpFeatureExceptionD1Ev@Base 2.6.2-1
 _ZN18vpFeatureExceptionD2Ev@Base 2.6.2-1
 _ZN18vpFeatureLuminance11interactionER8vpMatrix@Base 2.6.2-1
 _ZN18vpFeatureLuminance11interactionEj@Base 2.6.2-1
 _ZN18vpFeatureLuminance19setCameraParametersER18vpCameraParameters@Base 2.6.2-1
 _ZN18vpFeatureLuminance4initEjjd@Base 2.6.2-1
 _ZN18vpFeatureLuminance4initEv@Base 2.6.2-1
 _ZN18vpFeatureLuminance5errorERK14vpBasicFeatureR11vpColVector@Base 2.6.2-1
 _ZN18vpFeatureLuminance5errorERK14vpBasicFeaturej@Base 2.6.2-1
 _ZN18vpFeatureLuminance5set_ZEd@Base 2.6.2-1
 _ZN18vpFeatureLuminance9buildFromER7vpImageIhE@Base 2.6.2-1
 _ZN18vpFeatureLuminanceC1Ev@Base 2.6.2-1
 _ZN18vpFeatureLuminanceC2Ev@Base 2.6.2-1
 _ZN18vpFeatureLuminanceD0Ev@Base 2.6.2-1
 _ZN18vpFeatureLuminanceD1Ev@Base 2.6.2-1
 _ZN18vpFeatureLuminanceD2Ev@Base 2.6.2-1
 _ZN18vpForceTwistMatrix11setIdentityEv@Base 2.6.2-1
 _ZN18vpForceTwistMatrix4initEv@Base 2.6.2-1
 _ZN18vpForceTwistMatrix9buildFromERK19vpHomogeneousMatrix@Base 2.6.2-1
 _ZN18vpForceTwistMatrix9buildFromERK19vpTranslationVectorRK14vpThetaUVector@Base 2.6.2-1
 _ZN18vpForceTwistMatrix9buildFromERK19vpTranslationVectorRK16vpRotationMatrix@Base 2.6.2-1
 _ZN18vpForceTwistMatrixC1ERK19vpHomogeneousMatrix@Base 2.6.2-1
 _ZN18vpForceTwistMatrixC1ERK19vpTranslationVectorRK14vpThetaUVector@Base 2.6.2-1
 _ZN18vpForceTwistMatrixC1ERK19vpTranslationVectorRK16vpRotationMatrix@Base 2.6.2-1
 _ZN18vpForceTwistMatrixC1ERKS_@Base 2.6.2-1
 _ZN18vpForceTwistMatrixC1Edddddd@Base 2.6.2-1
 _ZN18vpForceTwistMatrixC1Ev@Base 2.6.2-1
 _ZN18vpForceTwistMatrixC2ERK19vpHomogeneousMatrix@Base 2.6.2-1
 _ZN18vpForceTwistMatrixC2ERK19vpTranslationVectorRK14vpThetaUVector@Base 2.6.2-1
 _ZN18vpForceTwistMatrixC2ERK19vpTranslationVectorRK16vpRotationMatrix@Base 2.6.2-1
 _ZN18vpForceTwistMatrixC2ERKS_@Base 2.6.2-1
 _ZN18vpForceTwistMatrixC2Edddddd@Base 2.6.2-1
 _ZN18vpForceTwistMatrixC2Ev@Base 2.6.2-1
 _ZN18vpForceTwistMatrixD0Ev@Base 2.6.2-1
 _ZN18vpForceTwistMatrixD1Ev@Base 2.6.2-1
 _ZN18vpForceTwistMatrixD2Ev@Base 2.6.2-1
 _ZN18vpForceTwistMatrixaSERKS_@Base 2.6.2-1
 _ZN18vpMomentCInvariant4nameEv@Base 2.6.2-1
 _ZN18vpMomentCInvariant6printIEj@Base 2.6.2-1
 _ZN18vpMomentCInvariant7computeEv@Base 2.6.2-1
 _ZN18vpMomentCInvariant8computeIER16vpMomentCenteredRSt6vectorIdSaIdEE@Base 2.6.2-1
 _ZN18vpMomentCInvariantC1Ev@Base 2.6.2-1
 _ZN18vpMomentCInvariantC2Ev@Base 2.6.2-1
 _ZN18vpMomentCInvariantD0Ev@Base 2.6.2-1
 _ZN18vpMomentCInvariantD1Ev@Base 2.6.2-1
 _ZN18vpMomentCInvariantD2Ev@Base 2.6.2-1
 _ZN18vpQuaternionVector3setEdddd@Base 2.6.2-1
 _ZN18vpQuaternionVector7minimumE@Base 2.6.2-1
 _ZN18vpQuaternionVector9buildFromERK16vpRotationMatrix@Base 2.6.2-1
 _ZN18vpQuaternionVectorC1ERK16vpRotationMatrix@Base 2.6.2-1
 _ZN18vpQuaternionVectorC1ERKS_@Base 2.6.2-1
 _ZN18vpQuaternionVectorC1Edddd@Base 2.6.2-1
 _ZN18vpQuaternionVectorC1Ev@Base 2.6.2-1
 _ZN18vpQuaternionVectorC2ERK16vpRotationMatrix@Base 2.6.2-1
 _ZN18vpQuaternionVectorC2ERKS_@Base 2.6.2-1
 _ZN18vpQuaternionVectorC2Edddd@Base 2.6.2-1
 _ZN18vpQuaternionVectorC2Ev@Base 2.6.2-1
 _ZN18vpQuaternionVectoraSERS_@Base 2.6.2-1
 _ZN18vpQuaternionVectormiERS_@Base 2.6.2-1
 _ZN18vpQuaternionVectormlERS_@Base 2.6.2-1
 _ZN18vpQuaternionVectormlEd@Base 2.6.2-1
 _ZN18vpQuaternionVectorngEv@Base 2.6.2-1
 _ZN18vpQuaternionVectorplERS_@Base 2.6.2-1
 _ZN19vpFeatureMomentArea10momentNameEv@Base 2.6.2-1
 _ZN19vpFeatureMomentArea19compute_interactionEv@Base 2.6.2-1
 _ZN19vpFeatureMomentArea4nameEv@Base 2.6.2-1
 _ZN19vpFeatureMomentAreaD0Ev@Base 2.6.2-1
 _ZN19vpFeatureMomentAreaD1Ev@Base 2.6.2-1
 _ZN19vpFeatureMomentAreaD2Ev@Base 2.6.2-1
 _ZN19vpFeaturePointPolar11interactionEj@Base 2.6.2-1
 _ZN19vpFeaturePointPolar13set_rhoThetaZEddd@Base 2.6.2-1
 _ZN19vpFeaturePointPolar4initEv@Base 2.6.2-1
 _ZN19vpFeaturePointPolar5errorERK14vpBasicFeaturej@Base 2.6.2-1
 _ZN19vpFeaturePointPolar5set_ZEd@Base 2.6.2-1
 _ZN19vpFeaturePointPolar7set_rhoEd@Base 2.6.2-1
 _ZN19vpFeaturePointPolar9buildFromEddd@Base 2.6.2-1
 _ZN19vpFeaturePointPolar9set_thetaEd@Base 2.6.2-1
 _ZN19vpFeaturePointPolarC1Ev@Base 2.6.2-1
 _ZN19vpFeaturePointPolarC2Ev@Base 2.6.2-1
 _ZN19vpFeaturePointPolarD0Ev@Base 2.6.2-1
 _ZN19vpFeaturePointPolarD1Ev@Base 2.6.2-1
 _ZN19vpFeaturePointPolarD2Ev@Base 2.6.2-1
 _ZN19vpForwardProjection5trackERK19vpHomogeneousMatrix@Base 2.6.2-1
 _ZN19vpForwardProjection7projectERK19vpHomogeneousMatrix@Base 2.6.2-1
 _ZN19vpForwardProjection7projectEv@Base 2.6.2-1
 _ZN19vpForwardProjectionD0Ev@Base 2.6.2-1
 _ZN19vpForwardProjectionD1Ev@Base 2.6.2-1
 _ZN19vpForwardProjectionD2Ev@Base 2.6.2-1
 _ZN19vpHomogeneousMatrix11setIdentityEv@Base 2.6.2-1
 _ZN19vpHomogeneousMatrix3eyeEv@Base 2.6.2-1
 _ZN19vpHomogeneousMatrix4initEv@Base 2.6.2-1
 _ZN19vpHomogeneousMatrix4loadERSt14basic_ifstreamIcSt11char_traitsIcEE@Base 2.6.2-1
 _ZN19vpHomogeneousMatrix5printEv@Base 2.6.2-1
 _ZN19vpHomogeneousMatrix6insertERK14vpThetaUVector@Base 2.6.2-1
 _ZN19vpHomogeneousMatrix6insertERK16vpRotationMatrix@Base 2.6.2-1
 _ZN19vpHomogeneousMatrix6insertERK18vpQuaternionVector@Base 2.6.2-1
 _ZN19vpHomogeneousMatrix6insertERK19vpTranslationVector@Base 2.6.2-1
 _ZN19vpHomogeneousMatrix9buildFromERK12vpPoseVector@Base 2.6.2-1
 _ZN19vpHomogeneousMatrix9buildFromERK19vpTranslationVectorRK14vpThetaUVector@Base 2.6.2-1
 _ZN19vpHomogeneousMatrix9buildFromERK19vpTranslationVectorRK16vpRotationMatrix@Base 2.6.2-1
 _ZN19vpHomogeneousMatrix9buildFromERK19vpTranslationVectorRK18vpQuaternionVector@Base 2.6.2-1
 _ZN19vpHomogeneousMatrix9buildFromEdddddd@Base 2.6.2-1
 _ZN19vpHomogeneousMatrixC1ERK12vpPoseVector@Base 2.6.2-1
 _ZN19vpHomogeneousMatrixC1ERK19vpTranslationVectorRK14vpThetaUVector@Base 2.6.2-1
 _ZN19vpHomogeneousMatrixC1ERK19vpTranslationVectorRK16vpRotationMatrix@Base 2.6.2-1
 _ZN19vpHomogeneousMatrixC1ERK19vpTranslationVectorRK18vpQuaternionVector@Base 2.6.2-1
 _ZN19vpHomogeneousMatrixC1ERKS_@Base 2.6.2-1
 _ZN19vpHomogeneousMatrixC1Edddddd@Base 2.6.2-1
 _ZN19vpHomogeneousMatrixC1Ev@Base 2.6.2-1
 _ZN19vpHomogeneousMatrixC2ERK12vpPoseVector@Base 2.6.2-1
 _ZN19vpHomogeneousMatrixC2ERK19vpTranslationVectorRK14vpThetaUVector@Base 2.6.2-1
 _ZN19vpHomogeneousMatrixC2ERK19vpTranslationVectorRK16vpRotationMatrix@Base 2.6.2-1
 _ZN19vpHomogeneousMatrixC2ERK19vpTranslationVectorRK18vpQuaternionVector@Base 2.6.2-1
 _ZN19vpHomogeneousMatrixC2ERKS_@Base 2.6.2-1
 _ZN19vpHomogeneousMatrixC2Edddddd@Base 2.6.2-1
 _ZN19vpHomogeneousMatrixC2Ev@Base 2.6.2-1
 _ZN19vpHomogeneousMatrixD0Ev@Base 2.6.2-1
 _ZN19vpHomogeneousMatrixD1Ev@Base 2.6.2-1
 _ZN19vpHomogeneousMatrixD2Ev@Base 2.6.2-1
 _ZN19vpHomogeneousMatrixaSERKS_@Base 2.6.2-1
 _ZN19vpProjectionDisplay13displayCameraER7vpImageIhERK19vpHomogeneousMatrixS5_RK18vpCameraParameters@Base 2.6.2-1
 _ZN19vpProjectionDisplay4initEi@Base 2.6.2-1
 _ZN19vpProjectionDisplay4initEv@Base 2.6.2-1
 _ZN19vpProjectionDisplay5closeEv@Base 2.6.2-1
 _ZN19vpProjectionDisplay6insertER19vpForwardProjection@Base 2.6.2-1
 _ZN19vpProjectionDisplay7displayER7vpImageIhERK19vpHomogeneousMatrixS5_RK18vpCameraParameters7vpColorRKb@Base 2.6.2-1
 _ZN19vpSimulatorViper85010stopMotionEv@Base 2.6.2-1
 _ZN19vpSimulatorViper85011compute_fMiEv@Base 2.6.2-1
 _ZN19vpSimulatorViper85011getPositionEN7vpRobot18vpControlFrameTypeER11vpColVector@Base 2.6.2-1
 _ZN19vpSimulatorViper85011getPositionEN7vpRobot18vpControlFrameTypeER12vpPoseVector@Base 2.6.2-1
 _ZN19vpSimulatorViper85011getVelocityEN7vpRobot18vpControlFrameTypeE@Base 2.6.2-1
 _ZN19vpSimulatorViper85011getVelocityEN7vpRobot18vpControlFrameTypeER11vpColVector@Base 2.6.2-1
 _ZN19vpSimulatorViper85011initDisplayEv@Base 2.6.2-1
 _ZN19vpSimulatorViper85011readPosFileEPKcR11vpColVector@Base 2.6.2-1
 _ZN19vpSimulatorViper85011savePosFileEPKcRK11vpColVector@Base 2.6.2-1
 _ZN19vpSimulatorViper85011setPositionEN7vpRobot18vpControlFrameTypeERK11vpColVector@Base 2.6.2-1
 _ZN19vpSimulatorViper85011setPositionEN7vpRobot18vpControlFrameTypeEdddddd@Base 2.6.2-1
 _ZN19vpSimulatorViper85011setPositionEPKc@Base 2.6.2-1
 _ZN19vpSimulatorViper85011setVelocityEN7vpRobot18vpControlFrameTypeERK11vpColVector@Base 2.6.2-1
 _ZN19vpSimulatorViper85013setJointLimitE11vpColVectorS0_@Base 2.6.2-1
 _ZN19vpSimulatorViper85013setRobotStateEN7vpRobot16vpRobotStateTypeE@Base 2.6.2-1
 _ZN19vpSimulatorViper85014isInJointLimitEv@Base 2.6.2-1
 _ZN19vpSimulatorViper85015getDisplacementEN7vpRobot18vpControlFrameTypeER11vpColVector@Base 2.6.2-1
 _ZN19vpSimulatorViper85015singularityTestE11vpColVectorR8vpMatrix@Base 2.6.2-1
 _ZN19vpSimulatorViper85016getExternalImageER7vpImageI6vpRGBaE@Base 2.6.2-1
 _ZN19vpSimulatorViper85019getCameraParametersER18vpCameraParametersRK7vpImageI6vpRGBaE@Base 2.6.2-1
 _ZN19vpSimulatorViper85019getCameraParametersER18vpCameraParametersRK7vpImageIhE@Base 2.6.2-1
 _ZN19vpSimulatorViper85019getCameraParametersER18vpCameraParametersRKjS3_@Base 2.6.2-1
 _ZN19vpSimulatorViper85019setCameraParametersE18vpCameraParameters@Base 2.6.2-1
 _ZN19vpSimulatorViper85021getCameraDisplacementER11vpColVector@Base 2.6.2-1
 _ZN19vpSimulatorViper85023updateArticularPositionEv@Base 2.6.2-1
 _ZN19vpSimulatorViper85024computeArticularVelocityEv@Base 2.6.2-1
 _ZN19vpSimulatorViper85024getArticularDisplacementER11vpColVector@Base 2.6.2-1
 _ZN19vpSimulatorViper85026defaultPositioningVelocityE@Base 2.6.2-1
 _ZN19vpSimulatorViper85027findHighestPositioningSpeedER11vpColVector@Base 2.6.2-1
 _ZN19vpSimulatorViper85032initialiseCameraRelativeToObjectE19vpHomogeneousMatrix@Base 2.6.2-1
 _ZN19vpSimulatorViper85032initialiseObjectRelativeToCameraE19vpHomogeneousMatrix@Base 2.6.2-1
 _ZN19vpSimulatorViper8504initEN10vpViper85010vpToolTypeEN18vpCameraParameters26vpCameraParametersProjTypeE@Base 2.6.2-1
 _ZN19vpSimulatorViper8504initEv@Base 2.6.2-1
 _ZN19vpSimulatorViper8504moveEPKc@Base 2.6.2-1
 _ZN19vpSimulatorViper8507get_cMeER19vpHomogeneousMatrix@Base 2.6.2-1
 _ZN19vpSimulatorViper8507get_cVeER21vpVelocityTwistMatrix@Base 2.6.2-1
 _ZN19vpSimulatorViper8507get_eJeER8vpMatrix@Base 2.6.2-1
 _ZN19vpSimulatorViper8507get_fJeER8vpMatrix@Base 2.6.2-1
 _ZN19vpSimulatorViper8507get_fMiEP19vpHomogeneousMatrix@Base 2.6.2-1
 _ZN19vpSimulatorViper8508initArmsEv@Base 2.6.2-1
 _ZN19vpSimulatorViper850C1Eb@Base 2.6.2-1
 _ZN19vpSimulatorViper850C1Ev@Base 2.6.2-1
 _ZN19vpSimulatorViper850C2Eb@Base 2.6.2-1
 _ZN19vpSimulatorViper850C2Ev@Base 2.6.2-1
 _ZN19vpSimulatorViper850D0Ev@Base 2.6.2-1
 _ZN19vpSimulatorViper850D1Ev@Base 2.6.2-1
 _ZN19vpSimulatorViper850D2Ev@Base 2.6.2-1
 _ZN19vpTrackingExceptionC1EiPKc@Base 2.6.2-1
 _ZN19vpTrackingExceptionC2EiPKc@Base 2.6.2-1
 _ZN19vpTrackingExceptionD0Ev@Base 2.6.2-1
 _ZN19vpTrackingExceptionD1Ev@Base 2.6.2-1
 _ZN19vpTrackingExceptionD2Ev@Base 2.6.2-1
 _ZN19vpTranslationVector3setEddd@Base 2.6.2-1
 _ZN19vpTranslationVector4initEv@Base 2.6.2-1
 _ZN19vpTranslationVector4skewERKS_@Base 2.6.2-1
 _ZN19vpTranslationVector4skewERKS_R8vpMatrix@Base 2.6.2-1
 _ZN19vpTranslationVector5crossERKS_S1_@Base 2.6.2-1
 _ZN19vpTranslationVectorC1ERKS_@Base 2.6.2-1
 _ZN19vpTranslationVectorC1Eddd@Base 2.6.2-1
 _ZN19vpTranslationVectorC2ERKS_@Base 2.6.2-1
 _ZN19vpTranslationVectorC2Eddd@Base 2.6.2-1
 _ZN19vpTranslationVectorD0Ev@Base 2.6.2-1
 _ZN19vpTranslationVectorD1Ev@Base 2.6.2-1
 _ZN19vpTranslationVectorD2Ev@Base 2.6.2-1
 _ZN19vpTranslationVectoraSERKS_@Base 2.6.2-1
 _ZN19vpTranslationVectoraSEd@Base 2.6.2-1
 _ZN20vpFeatureMomentAlpha10momentNameEv@Base 2.6.2-1
 _ZN20vpFeatureMomentAlpha19compute_interactionEv@Base 2.6.2-1
 _ZN20vpFeatureMomentAlpha4nameEv@Base 2.6.2-1
 _ZN20vpFeatureMomentAlpha5errorERK14vpBasicFeaturej@Base 2.6.2-1
 _ZN20vpFeatureMomentAlphaD0Ev@Base 2.6.2-1
 _ZN20vpFeatureMomentAlphaD1Ev@Base 2.6.2-1
 _ZN20vpFeatureMomentAlphaD2Ev@Base 2.6.2-1
 _ZN20vpFeatureMomentBasic10momentNameEv@Base 2.6.2-1
 _ZN20vpFeatureMomentBasic11interactionEj@Base 2.6.2-1
 _ZN20vpFeatureMomentBasic11interactionEjj@Base 2.6.2-1
 _ZN20vpFeatureMomentBasic19compute_interactionEv@Base 2.6.2-1
 _ZN20vpFeatureMomentBasic4nameEv@Base 2.6.2-1
 _ZN20vpFeatureMomentBasicC1ER16vpMomentDatabasedddP23vpFeatureMomentDatabase@Base 2.6.2-1
 _ZN20vpFeatureMomentBasicC2ER16vpMomentDatabasedddP23vpFeatureMomentDatabase@Base 2.6.2-1
 _ZN20vpFeatureMomentBasicD0Ev@Base 2.6.2-1
 _ZN20vpFeatureMomentBasicD1Ev@Base 2.6.2-1
 _ZN20vpFeatureMomentBasicD2Ev@Base 2.6.2-1
 _ZN20vpFeatureTranslation11interactionEj@Base 2.6.2-1
 _ZN20vpFeatureTranslation4initEv@Base 2.6.2-1
 _ZN20vpFeatureTranslation5errorERK14vpBasicFeaturej@Base 2.6.2-1
 _ZN20vpFeatureTranslation6set_TxEd@Base 2.6.2-1
 _ZN20vpFeatureTranslation6set_TyEd@Base 2.6.2-1
 _ZN20vpFeatureTranslation6set_TzEd@Base 2.6.2-1
 _ZN20vpFeatureTranslation9buildFromERK19vpHomogeneousMatrix@Base 2.6.2-1
 _ZN20vpFeatureTranslationC1ENS_38vpFeatureTranslationRepresentationTypeE@Base 2.6.2-1
 _ZN20vpFeatureTranslationC1ER19vpHomogeneousMatrixNS_38vpFeatureTranslationRepresentationTypeE@Base 2.6.2-1
 _ZN20vpFeatureTranslationC2ENS_38vpFeatureTranslationRepresentationTypeE@Base 2.6.2-1
 _ZN20vpFeatureTranslationC2ER19vpHomogeneousMatrixNS_38vpFeatureTranslationRepresentationTypeE@Base 2.6.2-1
 _ZN20vpFeatureTranslationD0Ev@Base 2.6.2-1
 _ZN20vpFeatureTranslationD1Ev@Base 2.6.2-1
 _ZN20vpFeatureTranslationD2Ev@Base 2.6.2-1
 _ZN20vpWireFrameSimulator10navigationER7vpImageI6vpRGBaERb@Base 2.6.2-1
 _ZN20vpWireFrameSimulator10navigationER7vpImageIhERb@Base 2.6.2-1
 _ZN20vpWireFrameSimulator13display_sceneEPA4_fR11Bound_sceneR7vpImageI6vpRGBaE7vpColor@Base 2.6.2-1
 _ZN20vpWireFrameSimulator13display_sceneEPA4_fR11Bound_sceneR7vpImageIhE7vpColor@Base 2.6.2-1
 _ZN20vpWireFrameSimulator16getExternalImageER7vpImageI6vpRGBaE19vpHomogeneousMatrix@Base 2.6.2-1
 _ZN20vpWireFrameSimulator16getExternalImageER7vpImageI6vpRGBaE@Base 2.6.2-1
 _ZN20vpWireFrameSimulator16getExternalImageER7vpImageIhE19vpHomogeneousMatrix@Base 2.6.2-1
 _ZN20vpWireFrameSimulator16getExternalImageER7vpImageIhE@Base 2.6.2-1
 _ZN20vpWireFrameSimulator16getInternalImageER7vpImageI6vpRGBaE@Base 2.6.2-1
 _ZN20vpWireFrameSimulator16getInternalImageER7vpImageIhE@Base 2.6.2-1
 _ZN20vpWireFrameSimulator17displayTrajectoryER7vpImageI6vpRGBaER6vpListI19vpHomogeneousMatrixES7_S5_@Base 2.6.2-1
 _ZN20vpWireFrameSimulator17displayTrajectoryER7vpImageI6vpRGBaERKSt4listI19vpHomogeneousMatrixSaIS5_EES9_RKS5_@Base 2.6.2-1
 _ZN20vpWireFrameSimulator17displayTrajectoryER7vpImageIhER6vpListI19vpHomogeneousMatrixES6_S4_@Base 2.6.2-1
 _ZN20vpWireFrameSimulator17displayTrajectoryER7vpImageIhERKSt4listI19vpHomogeneousMatrixSaIS4_EES8_RKS4_@Base 2.6.2-1
 _ZN20vpWireFrameSimulator23projectCameraTrajectoryER7vpImageI6vpRGBaE19vpHomogeneousMatrixS4_@Base 2.6.2-1
 _ZN20vpWireFrameSimulator23projectCameraTrajectoryER7vpImageI6vpRGBaE19vpHomogeneousMatrixS4_S4_@Base 2.6.2-1
 _ZN20vpWireFrameSimulator23projectCameraTrajectoryER7vpImageIhE19vpHomogeneousMatrixS3_@Base 2.6.2-1
 _ZN20vpWireFrameSimulator23projectCameraTrajectoryER7vpImageIhE19vpHomogeneousMatrixS3_S3_@Base 2.6.2-1
 _ZN20vpWireFrameSimulator9initSceneENS_13vpSceneObjectE@Base 2.6.2-1
 _ZN20vpWireFrameSimulator9initSceneENS_13vpSceneObjectENS_20vpSceneDesiredObjectE@Base 2.6.2-1
 _ZN20vpWireFrameSimulator9initSceneENS_13vpSceneObjectENS_20vpSceneDesiredObjectER6vpListI16vpImageSimulatorE@Base 2.6.2-1
 _ZN20vpWireFrameSimulator9initSceneENS_13vpSceneObjectENS_20vpSceneDesiredObjectERKSt4listI16vpImageSimulatorSaIS3_EE@Base 2.6.2-1
 _ZN20vpWireFrameSimulator9initSceneENS_13vpSceneObjectER6vpListI16vpImageSimulatorE@Base 2.6.2-1
 _ZN20vpWireFrameSimulator9initSceneENS_13vpSceneObjectERKSt4listI16vpImageSimulatorSaIS2_EE@Base 2.6.2-1
 _ZN20vpWireFrameSimulator9initSceneEPKc@Base 2.6.2-1
 _ZN20vpWireFrameSimulator9initSceneEPKcR6vpListI16vpImageSimulatorE@Base 2.6.2-1
 _ZN20vpWireFrameSimulator9initSceneEPKcRKSt4listI16vpImageSimulatorSaIS3_EE@Base 2.6.2-1
 _ZN20vpWireFrameSimulator9initSceneEPKcS1_@Base 2.6.2-1
 _ZN20vpWireFrameSimulator9initSceneEPKcS1_R6vpListI16vpImageSimulatorE@Base 2.6.2-1
 _ZN20vpWireFrameSimulator9initSceneEPKcS1_RKSt4listI16vpImageSimulatorSaIS3_EE@Base 2.6.2-1
 _ZN20vpWireFrameSimulatorC1Ev@Base 2.6.2-1
 _ZN20vpWireFrameSimulatorC2Ev@Base 2.6.2-1
 _ZN20vpWireFrameSimulatorD0Ev@Base 2.6.2-1
 _ZN20vpWireFrameSimulatorD1Ev@Base 2.6.2-1
 _ZN20vpWireFrameSimulatorD2Ev@Base 2.6.2-1
 _ZN21vpFeatureMomentCommon9updateAllEddd@Base 2.6.2-1
 _ZN21vpFeatureMomentCommonC1ER16vpMomentDatabaseddd@Base 2.6.2-1
 _ZN21vpFeatureMomentCommonC2ER16vpMomentDatabaseddd@Base 2.6.2-1
 _ZN21vpFeatureMomentCommonD0Ev@Base 2.6.2-1
 _ZN21vpFeatureMomentCommonD1Ev@Base 2.6.2-1
 _ZN21vpFeatureMomentCommonD2Ev@Base 2.6.2-1
 _ZN21vpMbtDistanceCylinder13setMovingEdgeEP4vpMe@Base 2.6.2-1
 _ZN21vpMbtDistanceCylinder14initMovingEdgeERK7vpImageIhERK19vpHomogeneousMatrix@Base 2.6.2-1
 _ZN21vpMbtDistanceCylinder15trackMovingEdgeERK7vpImageIhERK19vpHomogeneousMatrix@Base 2.6.2-1
 _ZN21vpMbtDistanceCylinder16reinitMovingEdgeERK7vpImageIhERK19vpHomogeneousMatrix@Base 2.6.2-1
 _ZN21vpMbtDistanceCylinder16updateMovingEdgeERK7vpImageIhERK19vpHomogeneousMatrix@Base 2.6.2-1
 _ZN21vpMbtDistanceCylinder18displayMovingEdgesERK7vpImageIhE@Base 2.6.2-1
 _ZN21vpMbtDistanceCylinder24getCylinderLineExtremityERdS0_ddP8vpCircle@Base 2.6.2-1
 _ZN21vpMbtDistanceCylinder26initInteractionMatrixErrorEv@Base 2.6.2-1
 _ZN21vpMbtDistanceCylinder29computeInteractionMatrixErrorERK19vpHomogeneousMatrixRK7vpImageIhE@Base 2.6.2-1
 _ZN21vpMbtDistanceCylinder7displayERK7vpImageI6vpRGBaERK19vpHomogeneousMatrixRK18vpCameraParameters7vpColorj@Base 2.6.2-1
 _ZN21vpMbtDistanceCylinder7displayERK7vpImageIhERK19vpHomogeneousMatrixRK18vpCameraParameters7vpColorj@Base 2.6.2-1
 _ZN21vpMbtDistanceCylinder7projectERK19vpHomogeneousMatrix@Base 2.6.2-1
 _ZN21vpMbtDistanceCylinder9buildFromERK7vpPointS2_d@Base 2.6.2-1
 _ZN21vpMbtDistanceCylinderC1Ev@Base 2.6.2-1
 _ZN21vpMbtDistanceCylinderC2Ev@Base 2.6.2-1
 _ZN21vpMbtDistanceCylinderD1Ev@Base 2.6.2-1
 _ZN21vpMbtDistanceCylinderD2Ev@Base 2.6.2-1
 _ZN21vpMomentGravityCenter3getEv@Base 2.6.2-1
 _ZN21vpMomentGravityCenter4nameEv@Base 2.6.2-1
 _ZN21vpMomentGravityCenter7computeEv@Base 2.6.2-1
 _ZN21vpMomentGravityCenterC1Ev@Base 2.6.2-1
 _ZN21vpMomentGravityCenterC2Ev@Base 2.6.2-1
 _ZN21vpMomentGravityCenterD0Ev@Base 2.6.2-1
 _ZN21vpMomentGravityCenterD1Ev@Base 2.6.2-1
 _ZN21vpMomentGravityCenterD2Ev@Base 2.6.2-1
 _ZN21vpVelocityTwistMatrix11setIdentityEv@Base 2.6.2-1
 _ZN21vpVelocityTwistMatrix4initEv@Base 2.6.2-1
 _ZN21vpVelocityTwistMatrix9buildFromERK19vpHomogeneousMatrix@Base 2.6.2-1
 _ZN21vpVelocityTwistMatrix9buildFromERK19vpTranslationVectorRK14vpThetaUVector@Base 2.6.2-1
 _ZN21vpVelocityTwistMatrix9buildFromERK19vpTranslationVectorRK16vpRotationMatrix@Base 2.6.2-1
 _ZN21vpVelocityTwistMatrixC1ERK19vpHomogeneousMatrix@Base 2.6.2-1
 _ZN21vpVelocityTwistMatrixC1ERK19vpTranslationVectorRK14vpThetaUVector@Base 2.6.2-1
 _ZN21vpVelocityTwistMatrixC1ERK19vpTranslationVectorRK16vpRotationMatrix@Base 2.6.2-1
 _ZN21vpVelocityTwistMatrixC1ERKS_@Base 2.6.2-1
 _ZN21vpVelocityTwistMatrixC1Edddddd@Base 2.6.2-1
 _ZN21vpVelocityTwistMatrixC1Ev@Base 2.6.2-1
 _ZN21vpVelocityTwistMatrixC2ERK19vpHomogeneousMatrix@Base 2.6.2-1
 _ZN21vpVelocityTwistMatrixC2ERK19vpTranslationVectorRK14vpThetaUVector@Base 2.6.2-1
 _ZN21vpVelocityTwistMatrixC2ERK19vpTranslationVectorRK16vpRotationMatrix@Base 2.6.2-1
 _ZN21vpVelocityTwistMatrixC2ERKS_@Base 2.6.2-1
 _ZN21vpVelocityTwistMatrixC2Edddddd@Base 2.6.2-1
 _ZN21vpVelocityTwistMatrixC2Ev@Base 2.6.2-1
 _ZN21vpVelocityTwistMatrixD0Ev@Base 2.6.2-1
 _ZN21vpVelocityTwistMatrixD1Ev@Base 2.6.2-1
 _ZN21vpVelocityTwistMatrixD2Ev@Base 2.6.2-1
 _ZN21vpVelocityTwistMatrixaSERKS_@Base 2.6.2-1
 _ZN22vpCalibrationExceptionD0Ev@Base 2.6.2-1
 _ZN22vpCalibrationExceptionD1Ev@Base 2.6.2-1
 _ZN22vpCalibrationExceptionD2Ev@Base 2.6.2-1
 _ZN22vpMeterPixelConversion11convertLineERK18vpCameraParametersRKdS4_RdS5_@Base 2.6.2-1
 _ZN22vpMomentAreaNormalized4nameEv@Base 2.6.2-1
 _ZN22vpMomentAreaNormalized7computeEv@Base 2.6.2-1
 _ZN22vpMomentAreaNormalizedC1Edd@Base 2.6.2-1
 _ZN22vpMomentAreaNormalizedC2Edd@Base 2.6.2-1
 _ZN22vpMomentAreaNormalizedD0Ev@Base 2.6.2-1
 _ZN22vpMomentAreaNormalizedD1Ev@Base 2.6.2-1
 _ZN22vpMomentAreaNormalizedD2Ev@Base 2.6.2-1
 _ZN22vpMomentGenericFeature10momentNameEv@Base 2.6.2-1
 _ZN22vpMomentGenericFeature4nameEv@Base 2.6.2-1
 _ZN22vpMomentGenericFeatureD0Ev@Base 2.6.2-1
 _ZN22vpMomentGenericFeatureD1Ev@Base 2.6.2-1
 _ZN22vpMomentGenericFeatureD2Ev@Base 2.6.2-1
 _ZN22vpPixelMeterConversion11convertLineERK18vpCameraParametersRKdS4_RdS5_@Base 2.6.2-1
 _ZN22vpPixelMeterConversion13convertMomentERK18vpCameraParametersjRK8vpMatrixRS3_@Base 2.6.2-1
 _ZN22vpPlanarObjectDetector10computeRoiEP12vpImagePointj@Base 2.6.2-1
 _ZN22vpPlanarObjectDetector10matchPointERK7vpImageIhE6vpRect@Base 2.6.2-1
 _ZN22vpPlanarObjectDetector10matchPointERK7vpImageIhE@Base 2.6.2-1
 _ZN22vpPlanarObjectDetector10matchPointERK7vpImageIhERK12vpImagePointjj@Base 2.6.2-1
 _ZN22vpPlanarObjectDetector14buildReferenceERK7vpImageIhE6vpRect@Base 2.6.2-1
 _ZN22vpPlanarObjectDetector14buildReferenceERK7vpImageIhE@Base 2.6.2-1
 _ZN22vpPlanarObjectDetector14buildReferenceERK7vpImageIhERK12vpImagePointjj@Base 2.6.2-1
 _ZN22vpPlanarObjectDetector14recordDetectorERKSsS1_@Base 2.6.2-1
 _ZN22vpPlanarObjectDetector16getMatchedPointsEjR12vpImagePointS1_@Base 2.6.2-1
 _ZN22vpPlanarObjectDetector17getReferencePointEjR12vpImagePoint@Base 2.6.2-1
 _ZN22vpPlanarObjectDetector20initialiseRefCornersERKN2cv5Rect_IiEE@Base 2.6.2-1
 _ZN22vpPlanarObjectDetector4initEv@Base 2.6.2-1
 _ZN22vpPlanarObjectDetector4loadERKSsS1_@Base 2.6.2-1
 _ZN22vpPlanarObjectDetector7displayER7vpImageIhES2_b@Base 2.6.2-1
 _ZN22vpPlanarObjectDetector7displayER7vpImageIhEb@Base 2.6.2-1
 _ZN22vpPlanarObjectDetectorC1ERKSsS1_@Base 2.6.2-1
 _ZN22vpPlanarObjectDetectorC1Ev@Base 2.6.2-1
 _ZN22vpPlanarObjectDetectorC2ERKSsS1_@Base 2.6.2-1
 _ZN22vpPlanarObjectDetectorC2Ev@Base 2.6.2-1
 _ZN22vpPlanarObjectDetectorD0Ev@Base 2.6.2-1
 _ZN22vpPlanarObjectDetectorD1Ev@Base 2.6.2-1
 _ZN22vpPlanarObjectDetectorD2Ev@Base 2.6.2-1
 _ZN23vpFeatureMomentCentered10momentNameEv@Base 2.6.2-1
 _ZN23vpFeatureMomentCentered11interactionEj@Base 2.6.2-1
 _ZN23vpFeatureMomentCentered11interactionEjj@Base 2.6.2-1
 _ZN23vpFeatureMomentCentered19compute_interactionEv@Base 2.6.2-1
 _ZN23vpFeatureMomentCentered4nameEv@Base 2.6.2-1
 _ZN23vpFeatureMomentCenteredC1ER16vpMomentDatabasedddP23vpFeatureMomentDatabase@Base 2.6.2-1
 _ZN23vpFeatureMomentCenteredC2ER16vpMomentDatabasedddP23vpFeatureMomentDatabase@Base 2.6.2-1
 _ZN23vpFeatureMomentCenteredD0Ev@Base 2.6.2-1
 _ZN23vpFeatureMomentCenteredD1Ev@Base 2.6.2-1
 _ZN23vpFeatureMomentCenteredD2Ev@Base 2.6.2-1
 _ZN23vpFeatureMomentDatabase3addER15vpFeatureMomentPc@Base 2.6.2-1
 _ZN23vpFeatureMomentDatabase3getEPKcRb@Base 2.6.2-1
 _ZN23vpFeatureMomentDatabase9updateAllEddd@Base 2.6.2-1
 _ZN23vpFeatureMomentDatabaseD0Ev@Base 2.6.2-1
 _ZN23vpFeatureMomentDatabaseD1Ev@Base 2.6.2-1
 _ZN23vpFeatureMomentDatabaseD2Ev@Base 2.6.2-1
 _ZN23vpFeatureVanishingPoint11interactionEj@Base 2.6.2-1
 _ZN23vpFeatureVanishingPoint4initEv@Base 2.6.2-1
 _ZN23vpFeatureVanishingPoint5errorERK14vpBasicFeaturej@Base 2.6.2-1
 _ZN23vpFeatureVanishingPoint5set_xEd@Base 2.6.2-1
 _ZN23vpFeatureVanishingPoint5set_yEd@Base 2.6.2-1
 _ZN23vpFeatureVanishingPoint6set_xyEdd@Base 2.6.2-1
 _ZN23vpFeatureVanishingPoint9buildFromEdd@Base 2.6.2-1
 _ZN23vpFeatureVanishingPointC1Ev@Base 2.6.2-1
 _ZN23vpFeatureVanishingPointC2Ev@Base 2.6.2-1
 _ZN23vpFeatureVanishingPointD0Ev@Base 2.6.2-1
 _ZN23vpFeatureVanishingPointD1Ev@Base 2.6.2-1
 _ZN23vpFeatureVanishingPointD2Ev@Base 2.6.2-1
 _ZN23vpFrameGrabberExceptionC1EiPKc@Base 2.6.2-1
 _ZN23vpFrameGrabberExceptionC2EiPKc@Base 2.6.2-1
 _ZN23vpFrameGrabberExceptionD0Ev@Base 2.6.2-1
 _ZN23vpFrameGrabberExceptionD1Ev@Base 2.6.2-1
 _ZN23vpFrameGrabberExceptionD2Ev@Base 2.6.2-1
 _ZN23vpParallelPortExceptionD0Ev@Base 2.6.2-1
 _ZN23vpParallelPortExceptionD1Ev@Base 2.6.2-1
 _ZN23vpParallelPortExceptionD2Ev@Base 2.6.2-1
 _ZN25vpFeatureMomentCInvariant10momentNameEv@Base 2.6.2-1
 _ZN25vpFeatureMomentCInvariant19compute_interactionEv@Base 2.6.2-1
 _ZN25vpFeatureMomentCInvariant4nameEv@Base 2.6.2-1
 _ZN25vpFeatureMomentCInvariantD0Ev@Base 2.6.2-1
 _ZN25vpFeatureMomentCInvariantD1Ev@Base 2.6.2-1
 _ZN25vpFeatureMomentCInvariantD2Ev@Base 2.6.2-1
 _ZN28vpFeatureMomentGravityCenter10momentNameEv@Base 2.6.2-1
 _ZN28vpFeatureMomentGravityCenter19compute_interactionEv@Base 2.6.2-1
 _ZN28vpFeatureMomentGravityCenter4nameEv@Base 2.6.2-1
 _ZN28vpFeatureMomentGravityCenterD0Ev@Base 2.6.2-1
 _ZN28vpFeatureMomentGravityCenterD1Ev@Base 2.6.2-1
 _ZN28vpFeatureMomentGravityCenterD2Ev@Base 2.6.2-1
 _ZN29vpFeatureMomentAreaNormalized10momentNameEv@Base 2.6.2-1
 _ZN29vpFeatureMomentAreaNormalized19compute_interactionEv@Base 2.6.2-1
 _ZN29vpFeatureMomentAreaNormalized4nameEv@Base 2.6.2-1
 _ZN29vpFeatureMomentAreaNormalizedD0Ev@Base 2.6.2-1
 _ZN29vpFeatureMomentAreaNormalizedD1Ev@Base 2.6.2-1
 _ZN29vpFeatureMomentAreaNormalizedD2Ev@Base 2.6.2-1
 _ZN2cv3MatD1Ev@Base 2.6.2-1
 _ZN2cv3MatD2Ev@Base 2.6.2-1
 _ZN2cv3SVDD1Ev@Base 2.6.2-1
 _ZN2cv3SVDD2Ev@Base 2.6.2-1
 _ZN2cv4Mat_IdEaSERKNS_3MatE@Base 2.6.2-1
 _ZN31vpMomentGravityCenterNormalized4nameEv@Base 2.6.2-1
 _ZN31vpMomentGravityCenterNormalized7computeEv@Base 2.6.2-1
 _ZN31vpMomentGravityCenterNormalizedC1Ev@Base 2.6.2-1
 _ZN31vpMomentGravityCenterNormalizedC2Ev@Base 2.6.2-1
 _ZN31vpMomentGravityCenterNormalizedD0Ev@Base 2.6.2-1
 _ZN31vpMomentGravityCenterNormalizedD1Ev@Base 2.6.2-1
 _ZN31vpMomentGravityCenterNormalizedD2Ev@Base 2.6.2-1
 _ZN33vpLinearKalmanFilterInstantiation10initFilterEjR11vpColVectorS1_dd@Base 2.6.2-1
 _ZN33vpLinearKalmanFilterInstantiation28initStateConstVel_MeasurePosEjR11vpColVectorS1_d@Base 2.6.2-1
 _ZN33vpLinearKalmanFilterInstantiation44initStateConstAccWithColoredNoise_MeasureVelEjR11vpColVectorS1_dd@Base 2.6.2-1
 _ZN33vpLinearKalmanFilterInstantiation44initStateConstVelWithColoredNoise_MeasureVelEjR11vpColVectorS1_d@Base 2.6.2-1
 _ZN33vpLinearKalmanFilterInstantiation6filterER11vpColVector@Base 2.6.2-1
 _ZN38vpFeatureMomentGravityCenterNormalized10momentNameEv@Base 2.6.2-1
 _ZN38vpFeatureMomentGravityCenterNormalized19compute_interactionEv@Base 2.6.2-1
 _ZN38vpFeatureMomentGravityCenterNormalized4nameEv@Base 2.6.2-1
 _ZN38vpFeatureMomentGravityCenterNormalizedD0Ev@Base 2.6.2-1
 _ZN38vpFeatureMomentGravityCenterNormalizedD1Ev@Base 2.6.2-1
 _ZN38vpFeatureMomentGravityCenterNormalizedD2Ev@Base 2.6.2-1
 _ZN3OIS11KeyListenerD0Ev@Base 2.6.2-1
 _ZN3OIS11KeyListenerD1Ev@Base 2.6.2-1
 _ZN3OIS11KeyListenerD2Ev@Base 2.6.2-1
 _ZN4Ogre10TexturePtrC1ERKNS_9SharedPtrINS_8ResourceEEE@Base 2.6.2-1
 _ZN4Ogre10TexturePtrC2ERKNS_9SharedPtrINS_8ResourceEEE@Base 2.6.2-1
 _ZN4Ogre10TexturePtrD0Ev@Base 2.6.2-1
 _ZN4Ogre10TexturePtrD1Ev@Base 2.6.2-1
 _ZN4Ogre10TexturePtrD2Ev@Base 2.6.2-1
 _ZN4Ogre11MaterialPtrC1ERKNS_9SharedPtrINS_8ResourceEEE@Base 2.6.2-1
 _ZN4Ogre11MaterialPtrC2ERKNS_9SharedPtrINS_8ResourceEEE@Base 2.6.2-1
 _ZN4Ogre11MaterialPtrD0Ev@Base 2.6.2-1
 _ZN4Ogre11MaterialPtrD1Ev@Base 2.6.2-1
 _ZN4Ogre11MaterialPtrD2Ev@Base 2.6.2-1
 _ZN4Ogre13FrameListener10frameEndedERKNS_10FrameEventE@Base 2.6.2-1
 _ZN4Ogre13FrameListener12frameStartedERKNS_10FrameEventE@Base 2.6.2-1
 _ZN4Ogre13FrameListener20frameRenderingQueuedERKNS_10FrameEventE@Base 2.6.2-1
 _ZN4Ogre13FrameListenerD0Ev@Base 2.6.2-1
 _ZN4Ogre13FrameListenerD1Ev@Base 2.6.2-1
 _ZN4Ogre13FrameListenerD2Ev@Base 2.6.2-1
 _ZN4Ogre14AxisAlignedBoxD1Ev@Base 2.6.2-1
 _ZN4Ogre14AxisAlignedBoxD2Ev@Base 2.6.2-1
 _ZN4Ogre19WindowEventListener11windowMovedEPNS_12RenderWindowE@Base 2.6.2-1
 _ZN4Ogre19WindowEventListener12windowClosedEPNS_12RenderWindowE@Base 2.6.2-1
 _ZN4Ogre19WindowEventListener13windowClosingEPNS_12RenderWindowE@Base 2.6.2-1
 _ZN4Ogre19WindowEventListener13windowResizedEPNS_12RenderWindowE@Base 2.6.2-1
 _ZN4Ogre19WindowEventListener17windowFocusChangeEPNS_12RenderWindowE@Base 2.6.2-1
 _ZN4Ogre19WindowEventListenerD0Ev@Base 2.6.2-1
 _ZN4Ogre19WindowEventListenerD1Ev@Base 2.6.2-1
 _ZN4Ogre19WindowEventListenerD2Ev@Base 2.6.2-1
 _ZN4Ogre28HardwarePixelBufferSharedPtrD0Ev@Base 2.6.2-1
 _ZN4Ogre28HardwarePixelBufferSharedPtrD1Ev@Base 2.6.2-1
 _ZN4Ogre28HardwarePixelBufferSharedPtrD2Ev@Base 2.6.2-1
 _ZN4Ogre9SharedPtrINS_19HardwarePixelBufferEE4swapERS2_@Base 2.6.2-1
 _ZN4Ogre9SharedPtrINS_19HardwarePixelBufferEE7destroyEv@Base 2.6.2-1
 _ZN4Ogre9SharedPtrINS_19HardwarePixelBufferEE7releaseEv@Base 2.6.2-1
 _ZN4Ogre9SharedPtrINS_19HardwarePixelBufferEEC1ERKS2_@Base 2.6.2-1
 _ZN4Ogre9SharedPtrINS_19HardwarePixelBufferEEC2ERKS2_@Base 2.6.2-1
 _ZN4Ogre9SharedPtrINS_19HardwarePixelBufferEED0Ev@Base 2.6.2-1
 _ZN4Ogre9SharedPtrINS_19HardwarePixelBufferEED1Ev@Base 2.6.2-1
 _ZN4Ogre9SharedPtrINS_19HardwarePixelBufferEED2Ev@Base 2.6.2-1
 _ZN4Ogre9SharedPtrINS_19HardwarePixelBufferEEaSERKS2_@Base 2.6.2-1
 _ZN4Ogre9SharedPtrINS_7TextureEE4swapERS2_@Base 2.6.2-1
 _ZN4Ogre9SharedPtrINS_7TextureEE7destroyEv@Base 2.6.2-1
 _ZN4Ogre9SharedPtrINS_7TextureEE7releaseEv@Base 2.6.2-1
 _ZN4Ogre9SharedPtrINS_7TextureEED0Ev@Base 2.6.2-1
 _ZN4Ogre9SharedPtrINS_7TextureEED1Ev@Base 2.6.2-1
 _ZN4Ogre9SharedPtrINS_7TextureEED2Ev@Base 2.6.2-1
 _ZN4Ogre9SharedPtrINS_8MaterialEE4swapERS2_@Base 2.6.2-1
 _ZN4Ogre9SharedPtrINS_8MaterialEE7destroyEv@Base 2.6.2-1
 _ZN4Ogre9SharedPtrINS_8MaterialEE7releaseEv@Base 2.6.2-1
 _ZN4Ogre9SharedPtrINS_8MaterialEED0Ev@Base 2.6.2-1
 _ZN4Ogre9SharedPtrINS_8MaterialEED1Ev@Base 2.6.2-1
 _ZN4Ogre9SharedPtrINS_8MaterialEED2Ev@Base 2.6.2-1
 _ZN4Ogre9SharedPtrINS_8ResourceEE4swapERS2_@Base 2.6.2-1
 _ZN4Ogre9SharedPtrINS_8ResourceEE7destroyEv@Base 2.6.2-1
 _ZN4Ogre9SharedPtrINS_8ResourceEE7releaseEv@Base 2.6.2-1
 _ZN4Ogre9SharedPtrINS_8ResourceEED0Ev@Base 2.6.2-1
 _ZN4Ogre9SharedPtrINS_8ResourceEED1Ev@Base 2.6.2-1
 _ZN4Ogre9SharedPtrINS_8ResourceEED2Ev@Base 2.6.2-1
 _ZN4vpMe11setMaskSizeERKj@Base 2.6.2-1
 _ZN4vpMe13setMaskNumberERKj@Base 2.6.2-1
 _ZN4vpMe5printEv@Base 2.6.2-1
 _ZN4vpMe8initMaskEv@Base 2.6.2-1
 _ZN4vpMeC1ERKS_@Base 2.6.2-1
 _ZN4vpMeC1Ev@Base 2.6.2-1
 _ZN4vpMeC2ERKS_@Base 2.6.2-1
 _ZN4vpMeC2Ev@Base 2.6.2-1
 _ZN4vpMeD0Ev@Base 2.6.2-1
 _ZN4vpMeD1Ev@Base 2.6.2-1
 _ZN4vpMeD2Ev@Base 2.6.2-1
 _ZN4vpMeaSERKS_@Base 2.6.2-1
 _ZN5boost10lock_errorD0Ev@Base 2.6.2-1
 _ZN5boost10lock_errorD1Ev@Base 2.6.2-1
 _ZN5boost10lock_errorD2Ev@Base 2.6.2-1
 _ZN5boost11unique_lockINS_15recursive_mutexEE4lockEv@Base 2.6.2-1
 _ZN5boost15throw_exceptionINS_10lock_errorEEEvRKT_@Base 2.6.2-1
 _ZN5boost16exception_detail10clone_baseD0Ev@Base 2.6.2-1
 _ZN5boost16exception_detail10clone_baseD1Ev@Base 2.6.2-1
 _ZN5boost16exception_detail10clone_baseD2Ev@Base 2.6.2-1
 _ZN5boost16exception_detail10clone_implINS0_19error_info_injectorINS_10lock_errorEEEEC1ERKS4_@Base 2.6.2-1
 _ZN5boost16exception_detail10clone_implINS0_19error_info_injectorINS_10lock_errorEEEEC2ERKS4_@Base 2.6.2-1
 _ZN5boost16exception_detail10clone_implINS0_19error_info_injectorINS_10lock_errorEEEED0Ev@Base 2.6.2-1
 _ZN5boost16exception_detail10clone_implINS0_19error_info_injectorINS_10lock_errorEEEED1Ev@Base 2.6.2-1
 _ZN5boost16exception_detail10clone_implINS0_19error_info_injectorINS_10lock_errorEEEED2Ev@Base 2.6.2-1
 _ZN5boost16exception_detail12refcount_ptrINS0_20error_info_containerEE7releaseEv@Base 2.6.2-1
 _ZN5boost16exception_detail19error_info_injectorINS_10lock_errorEEC1ERKS3_@Base 2.6.2-1
 _ZN5boost16exception_detail19error_info_injectorINS_10lock_errorEEC2ERKS3_@Base 2.6.2-1
 _ZN5boost16exception_detail19error_info_injectorINS_10lock_errorEED0Ev@Base 2.6.2-1
 _ZN5boost16exception_detail19error_info_injectorINS_10lock_errorEED1Ev@Base 2.6.2-1
 _ZN5boost16exception_detail19error_info_injectorINS_10lock_errorEED2Ev@Base 2.6.2-1
 _ZN5boost16exception_detail20copy_boost_exceptionEPNS_9exceptionEPKS1_@Base 2.6.2-1
 _ZN5boost16thread_exceptionD0Ev@Base 2.6.2-1
 _ZN5boost16thread_exceptionD1Ev@Base 2.6.2-1
 _ZN5boost16thread_exceptionD2Ev@Base 2.6.2-1
 _ZN5boost9exceptionD0Ev@Base 2.6.2-1
 _ZN5boost9exceptionD1Ev@Base 2.6.2-1
 _ZN5boost9exceptionD2Ev@Base 2.6.2-1
 _ZN5vpDot12initTrackingERK7vpImageIhE@Base 2.6.2-1
 _ZN5vpDot12initTrackingERK7vpImageIhERK12vpImagePoint@Base 2.6.2-1
 _ZN5vpDot12initTrackingERK7vpImageIhERK12vpImagePointjj@Base 2.6.2-1
 _ZN5vpDot13setMaxDotSizeEd@Base 2.6.2-1
 _ZN5vpDot15setGrayLevelOutEv@Base 2.6.2-1
 _ZN5vpDot18SPIRAL_SEARCH_SIZEE@Base 2.6.2-1
 _ZN5vpDot21setGrayLevelPrecisionERKd@Base 2.6.2-1
 _ZN5vpDot3COGERK7vpImageIhERdS4_@Base 2.6.2-1
 _ZN5vpDot4initEv@Base 2.6.2-1
 _ZN5vpDot5trackERK7vpImageIhE@Base 2.6.2-1
 _ZN5vpDot5trackERK7vpImageIhER12vpImagePoint@Base 2.6.2-1
 _ZN5vpDot7connexeERK7vpImageIhEjjRdS4_S4_S4_@Base 2.6.2-1
 _ZN5vpDot7connexeERK7vpImageIhEjjRdS4_S4_S4_RSt6vectorIbSaIbEE@Base 2.6.2-1
 _ZN5vpDot7displayERK7vpImageIhE7vpColorj@Base 2.6.2-1
 _ZN5vpDot7displayERK7vpImageIhERK12vpImagePointRKSt4listIS4_SaIS4_EE7vpColorj@Base 2.6.2-1
 _ZN5vpDotC1ERK12vpImagePoint@Base 2.6.2-1
 _ZN5vpDotC1ERKS_@Base 2.6.2-1
 _ZN5vpDotC1Ev@Base 2.6.2-1
 _ZN5vpDotC2ERK12vpImagePoint@Base 2.6.2-1
 _ZN5vpDotC2ERKS_@Base 2.6.2-1
 _ZN5vpDotC2Ev@Base 2.6.2-1
 _ZN5vpDotD0Ev@Base 2.6.2-1
 _ZN5vpDotD1Ev@Base 2.6.2-1
 _ZN5vpDotD2Ev@Base 2.6.2-1
 _ZN5vpDotaSERKS_@Base 2.6.2-1
 _ZN5vpDoteqERKS_@Base 2.6.2-1
 _ZN5vpDotneERKS_@Base 2.6.2-1
 _ZN6vpDot210defineDotsEPS_RKjRKSsR7vpImageIhE7vpColorb@Base 2.6.2-1
 _ZN6vpDot210setSurfaceERKd@Base 2.6.2-1
 _ZN6vpDot211getGridSizeERjS0_@Base 2.6.2-1
 _ZN6vpDot211getInstanceEv@Base 2.6.2-1
 _ZN6vpDot212initTrackingERK7vpImageIhERK12vpImagePointj@Base 2.6.2-1
 _ZN6vpDot212initTrackingERK7vpImageIhERK12vpImagePointjjj@Base 2.6.2-1
 _ZN6vpDot212initTrackingERK7vpImageIhEj@Base 2.6.2-1
 _ZN6vpDot215findFirstBorderERK7vpImageIhERKjS5_RjS6_@Base 2.6.2-1
 _ZN6vpDot215getFreemanChainER6vpListIjE@Base 2.6.2-1
 _ZN6vpDot215getFreemanChainERSt4listIjSaIjEE@Base 2.6.2-1
 _ZN6vpDot215trackAndDisplayEPS_RKjR7vpImageIhERSt6vectorI12vpImagePointSaIS7_EEPS7_@Base 2.6.2-1
 _ZN6vpDot216searchDotsInAreaERK7vpImageIhE@Base 2.6.2-1
 _ZN6vpDot216searchDotsInAreaERK7vpImageIhERSt4listIS_SaIS_EE@Base 2.6.2-1
 _ZN6vpDot216searchDotsInAreaERK7vpImageIhEiijj@Base 2.6.2-1
 _ZN6vpDot216searchDotsInAreaERK7vpImageIhEiijjRSt4listIS_SaIS_EE@Base 2.6.2-1
 _ZN6vpDot216setSizePrecisionERKd@Base 2.6.2-1
 _ZN6vpDot217computeParametersERK7vpImageIhERKdS5_@Base 2.6.2-1
 _ZN6vpDot220computeMeanGrayLevelERK7vpImageIhE@Base 2.6.2-1
 _ZN6vpDot221setGrayLevelPrecisionERKd@Base 2.6.2-1
 _ZN6vpDot221updateFreemanPositionERjS0_RKj@Base 2.6.2-1
 _ZN6vpDot224computeFreemanParametersERKiS1_RjRiS3_RfS4_S4_S4_S4_S4_@Base 2.6.2-1
 _ZN6vpDot226computeFreemanChainElementERK7vpImageIhERKjS5_Rj@Base 2.6.2-1
 _ZN6vpDot226setEllipsoidShapePrecisionERKd@Base 2.6.2-1
 _ZN6vpDot233setMaxSizeSearchDistancePrecisionERKd@Base 2.6.2-1
 _ZN6vpDot24initEv@Base 2.6.2-1
 _ZN6vpDot25trackERK7vpImageIhE@Base 2.6.2-1
 _ZN6vpDot25trackERK7vpImageIhER12vpImagePoint@Base 2.6.2-1
 _ZN6vpDot27displayERK7vpImageIhE7vpColorj@Base 2.6.2-1
 _ZN6vpDot27displayERK7vpImageIhERK12vpImagePointRKSt4listIS4_SaIS4_EE7vpColorj@Base 2.6.2-1
 _ZN6vpDot27isValidERK7vpImageIhERKS_@Base 2.6.2-1
 _ZN6vpDot27setAreaERK6vpRect@Base 2.6.2-1
 _ZN6vpDot27setAreaERK7vpImageIhE@Base 2.6.2-1
 _ZN6vpDot27setAreaERK7vpImageIhEiijj@Base 2.6.2-1
 _ZN6vpDot28setWidthERKd@Base 2.6.2-1
 _ZN6vpDot29setHeightERKd@Base 2.6.2-1
 _ZN6vpDot2C1ERK12vpImagePoint@Base 2.6.2-1
 _ZN6vpDot2C1ERKS_@Base 2.6.2-1
 _ZN6vpDot2C1Ev@Base 2.6.2-1
 _ZN6vpDot2C2ERK12vpImagePoint@Base 2.6.2-1
 _ZN6vpDot2C2ERKS_@Base 2.6.2-1
 _ZN6vpDot2C2Ev@Base 2.6.2-1
 _ZN6vpDot2D0Ev@Base 2.6.2-1
 _ZN6vpDot2D1Ev@Base 2.6.2-1
 _ZN6vpDot2D2Ev@Base 2.6.2-1
 _ZN6vpDot2aSERKS_@Base 2.6.2-1
 _ZN6vpLine10projectionERK11vpColVectorRS0_@Base 2.6.2-1
 _ZN6vpLine10projectionEv@Base 2.6.2-1
 _ZN6vpLine11changeFrameERK19vpHomogeneousMatrix@Base 2.6.2-1
 _ZN6vpLine11changeFrameERK19vpHomogeneousMatrixR11vpColVector@Base 2.6.2-1
 _ZN6vpLine19setWorldCoordinatesERK11vpColVector@Base 2.6.2-1
 _ZN6vpLine19setWorldCoordinatesERK11vpColVectorS2_@Base 2.6.2-1
 _ZN6vpLine19setWorldCoordinatesERKdS1_S1_S1_S1_S1_S1_S1_@Base 2.6.2-1
 _ZN6vpLine4initEv@Base 2.6.2-1
 _ZN6vpLine7displayERK7vpImageIhERK18vpCameraParametersRK7vpColorj@Base 2.6.2-1
 _ZN6vpLine7displayERK7vpImageIhERK19vpHomogeneousMatrixRK18vpCameraParametersRK7vpColorj@Base 2.6.2-1
 _ZN6vpLineC1Ev@Base 2.6.2-1
 _ZN6vpLineC2Ev@Base 2.6.2-1
 _ZN6vpLineD0Ev@Base 2.6.2-1
 _ZN6vpLineD1Ev@Base 2.6.2-1
 _ZN6vpLineD2Ev@Base 2.6.2-1
 _ZN6vpListI15vpHistogramPeakED0Ev@Base 2.6.2-1
 _ZN6vpListI15vpHistogramPeakED1Ev@Base 2.6.2-1
 _ZN6vpListI15vpHistogramPeakED2Ev@Base 2.6.2-1
 _ZN6vpListI15vpHistogramPeakEaSERKS1_@Base 2.6.2-1
 _ZN6vpListI6vpDot2ED0Ev@Base 2.6.2-1
 _ZN6vpListI6vpDot2ED1Ev@Base 2.6.2-1
 _ZN6vpListI6vpDot2ED2Ev@Base 2.6.2-1
 _ZN6vpListIP14vpBasicFeatureED0Ev@Base 2.6.2-1
 _ZN6vpListIP14vpBasicFeatureED1Ev@Base 2.6.2-1
 _ZN6vpListIP14vpBasicFeatureED2Ev@Base 2.6.2-1
 _ZN6vpListIP17vpMbtDistanceLineED0Ev@Base 2.6.2-1
 _ZN6vpListIP17vpMbtDistanceLineED1Ev@Base 2.6.2-1
 _ZN6vpListIP17vpMbtDistanceLineED2Ev@Base 2.6.2-1
 _ZN6vpListIP21vpMbtDistanceCylinderED0Ev@Base 2.6.2-1
 _ZN6vpListIP21vpMbtDistanceCylinderED1Ev@Base 2.6.2-1
 _ZN6vpListIP21vpMbtDistanceCylinderED2Ev@Base 2.6.2-1
 _ZN6vpListIPiED0Ev@Base 2.6.2-1
 _ZN6vpListIPiED1Ev@Base 2.6.2-1
 _ZN6vpListIPiED2Ev@Base 2.6.2-1
 _ZN6vpListIjED0Ev@Base 2.6.2-1
 _ZN6vpListIjED1Ev@Base 2.6.2-1
 _ZN6vpListIjED2Ev@Base 2.6.2-1
 _ZN6vpMath10ang_min_mcE@Base 2.6.2-1
 _ZN6vpMath12ang_min_sincE@Base 2.6.2-1
 _ZN6vpPlot11displayGridEv@Base 2.6.2-1
 _ZN6vpPlot11initNbGraphEj@Base 2.6.2-1
 _ZN6vpPlot12setThicknessEjjj@Base 2.6.2-1
 _ZN6vpPlot13getPixelValueEb@Base 2.6.2-1
 _ZN6vpPlot14resetPointListEj@Base 2.6.2-1
 _ZN6vpPlot14resetPointListEjj@Base 2.6.2-1
 _ZN6vpPlot4initEjjjiiPKc@Base 2.6.2-1
 _ZN6vpPlot4plotEjdRK11vpColVector@Base 2.6.2-1
 _ZN6vpPlot4plotEjdRK11vpColVectorS2_@Base 2.6.2-1
 _ZN6vpPlot4plotEjjdd@Base 2.6.2-1
 _ZN6vpPlot4plotEjjddd@Base 2.6.2-1
 _ZN6vpPlot8navigateEv@Base 2.6.2-1
 _ZN6vpPlot8saveDataEjPKc@Base 2.6.2-1
 _ZN6vpPlot8setColorEjj7vpColor@Base 2.6.2-1
 _ZN6vpPlot8setTitleEjPKc@Base 2.6.2-1
 _ZN6vpPlot8setUnitXEjPKc@Base 2.6.2-1
 _ZN6vpPlot8setUnitYEjPKc@Base 2.6.2-1
 _ZN6vpPlot8setUnitZEjPKc@Base 2.6.2-1
 _ZN6vpPlot9initGraphEjj@Base 2.6.2-1
 _ZN6vpPlot9initRangeEjdddd@Base 2.6.2-1
 _ZN6vpPlot9initRangeEjdddddd@Base 2.6.2-1
 _ZN6vpPlot9setLegendEjjPKc@Base 2.6.2-1
 _ZN6vpPlotC1EjjjiiPKc@Base 2.6.2-1
 _ZN6vpPlotC1Ev@Base 2.6.2-1
 _ZN6vpPlotC2EjjjiiPKc@Base 2.6.2-1
 _ZN6vpPlotC2Ev@Base 2.6.2-1
 _ZN6vpPlotD1Ev@Base 2.6.2-1
 _ZN6vpPlotD2Ev@Base 2.6.2-1
 _ZN6vpPose10clearPointEv@Base 2.6.2-1
 _ZN6vpPose10initRansacEjPKdS1_jS1_S1_S1_R11vpColVector@Base 2.6.2-1
 _ZN6vpPose10poseRansacER19vpHomogeneousMatrix@Base 2.6.2-1
 _ZN6vpPose10printPointEv@Base 2.6.2-1
 _ZN6vpPose11computePoseENS_16vpPoseMethodTypeER19vpHomogeneousMatrix@Base 2.6.2-1
 _ZN6vpPose12displayModelER7vpImageI6vpRGBaER18vpCameraParameters7vpColor@Base 2.6.2-1
 _ZN6vpPose12displayModelER7vpImageIhER18vpCameraParameters7vpColor@Base 2.6.2-1
 _ZN6vpPose13poseVirtualVSER19vpHomogeneousMatrix@Base 2.6.2-1
 _ZN6vpPose15computeResidualER11vpColVectorS1_S1_@Base 2.6.2-1
 _ZN6vpPose15computeResidualER19vpHomogeneousMatrix@Base 2.6.2-1
 _ZN6vpPose16poseLagrangePlanER19vpHomogeneousMatrix@Base 2.6.2-1
 _ZN6vpPose17poseDementhonPlanER19vpHomogeneousMatrix@Base 2.6.2-1
 _ZN6vpPose17poseFromRectangleER7vpPointS1_S1_S1_dR18vpCameraParametersR19vpHomogeneousMatrix@Base 2.6.2-1
 _ZN6vpPose19poseLagrangeNonPlanER19vpHomogeneousMatrix@Base 2.6.2-1
 _ZN6vpPose19poseVirtualVSrobustER19vpHomogeneousMatrix@Base 2.6.2-1
 _ZN6vpPose20calculArbreDementhonER8vpMatrixR11vpColVectorR19vpHomogeneousMatrix@Base 2.6.2-1
 _ZN6vpPose20poseDementhonNonPlanER19vpHomogeneousMatrix@Base 2.6.2-1
 _ZN6vpPose21computeTransformationER11vpColVectorPjS1_@Base 2.6.2-1
 _ZN6vpPose23degenerateConfigurationER11vpColVectorPj@Base 2.6.2-1
 _ZN6vpPose24computeResidualDementhonER19vpHomogeneousMatrix@Base 2.6.2-1
 _ZN6vpPose36setDistanceToPlaneForCoplanarityTestEd@Base 2.6.2-1
 _ZN6vpPose4initEv@Base 2.6.2-1
 _ZN6vpPose6ransacERSt4listI7vpPointSaIS1_EES4_idRjS4_R19vpHomogeneousMatrixi@Base 2.6.2-1
 _ZN6vpPose6ransacEjPK7vpPointjS2_idRjRSt4listIS0_SaIS0_EER19vpHomogeneousMatrixi@Base 2.6.2-1
 _ZN6vpPose6ransacEjPKdS1_jS1_S1_S1_idRjR11vpColVectorS4_S4_S4_S4_R19vpHomogeneousMatrixi@Base 2.6.2-1
 _ZN6vpPose7displayER7vpImageI6vpRGBaER19vpHomogeneousMatrixR18vpCameraParametersd7vpColor@Base 2.6.2-1
 _ZN6vpPose7displayER7vpImageIhER19vpHomogeneousMatrixR18vpCameraParametersd7vpColor@Base 2.6.2-1
 _ZN6vpPose8addPointERK7vpPoint@Base 2.6.2-1
 _ZN6vpPose8coplanarEv@Base 2.6.2-1
 _ZN6vpPose8poseLoweER19vpHomogeneousMatrix@Base 2.6.2-1
 _ZN6vpPose9findMatchERSt6vectorI7vpPointSaIS1_EES4_RKiRKdRjS4_R19vpHomogeneousMatrixS6_@Base 2.6.2-1
 _ZN6vpPoseC1Ev@Base 2.6.2-1
 _ZN6vpPoseC2Ev@Base 2.6.2-1
 _ZN6vpPoseD0Ev@Base 2.6.2-1
 _ZN6vpPoseD1Ev@Base 2.6.2-1
 _ZN6vpPoseD2Ev@Base 2.6.2-1
 _ZN6vpRGBaaSERK11vpColVector@Base 2.6.2-1
 _ZN6vpRGBaaSERKS_@Base 2.6.2-1
 _ZN6vpRGBaaSERKh@Base 2.6.2-1
 _ZN6vpRGBaeqERKS_@Base 2.6.2-1
 _ZN6vpRGBaneERKS_@Base 2.6.2-1
 _ZN6vpRectC1ERK12vpImagePointS2_@Base 2.6.2-1
 _ZN6vpRectC1ERK12vpImagePointdd@Base 2.6.2-1
 _ZN6vpRectC1ERKS_@Base 2.6.2-1
 _ZN6vpRectC1Edddd@Base 2.6.2-1
 _ZN6vpRectC1Ev@Base 2.6.2-1
 _ZN6vpRectC2ERK12vpImagePointS2_@Base 2.6.2-1
 _ZN6vpRectC2ERK12vpImagePointdd@Base 2.6.2-1
 _ZN6vpRectC2ERKS_@Base 2.6.2-1
 _ZN6vpRectC2Edddd@Base 2.6.2-1
 _ZN6vpRectC2Ev@Base 2.6.2-1
 _ZN6vpRectaSERKS_@Base 2.6.2-1
 _ZN6vpTime13measureTimeMsEv@Base 2.6.2-1
 _ZN6vpTime17measureTimeMicrosEv@Base 2.6.2-1
 _ZN6vpTime17measureTimeSecondEv@Base 2.6.2-1
 _ZN6vpTime20minTimeForUsleepCallE@Base 2.6.2-1
 _ZN6vpTime4waitEd@Base 2.6.2-1
 _ZN6vpTime4waitEdd@Base 2.6.2-1
 _ZN7vpAfma411getJointMaxEv@Base 2.6.2-1
 _ZN7vpAfma411getJointMinEv@Base 2.6.2-1
 _ZN7vpAfma415get_fJe_inverseERK11vpColVectorR8vpMatrix@Base 2.6.2-1
 _ZN7vpAfma420getForwardKinematicsERK11vpColVector@Base 2.6.2-1
 _ZN7vpAfma44initEv@Base 2.6.2-1
 _ZN7vpAfma46njointE@Base 2.6.2-1
 _ZN7vpAfma47get_cMeER19vpHomogeneousMatrix@Base 2.6.2-1
 _ZN7vpAfma47get_cVeER21vpVelocityTwistMatrix@Base 2.6.2-1
 _ZN7vpAfma47get_cVfERK11vpColVectorR21vpVelocityTwistMatrix@Base 2.6.2-1
 _ZN7vpAfma47get_eJeERK11vpColVectorR8vpMatrix@Base 2.6.2-1
 _ZN7vpAfma47get_fJeERK11vpColVectorR8vpMatrix@Base 2.6.2-1
 _ZN7vpAfma47get_fMcERK11vpColVector@Base 2.6.2-1
 _ZN7vpAfma47get_fMcERK11vpColVectorR19vpHomogeneousMatrix@Base 2.6.2-1
 _ZN7vpAfma47get_fMeERK11vpColVectorR19vpHomogeneousMatrix@Base 2.6.2-1
 _ZN7vpAfma4C1Ev@Base 2.6.2-1
 _ZN7vpAfma4C2Ev@Base 2.6.2-1
 _ZN7vpAfma610getCoupl56Ev@Base 2.6.2-1
 _ZN7vpAfma611defaultToolE@Base 2.6.2-1
 _ZN7vpAfma611getJointMaxEv@Base 2.6.2-1
 _ZN7vpAfma611getJointMinEv@Base 2.6.2-1
 _ZN7vpAfma619getCameraParametersER18vpCameraParametersRK7vpImageI6vpRGBaE@Base 2.6.2-1
 _ZN7vpAfma619getCameraParametersER18vpCameraParametersRK7vpImageIhE@Base 2.6.2-1
 _ZN7vpAfma619getCameraParametersER18vpCameraParametersRKjS3_@Base 2.6.2-1
 _ZN7vpAfma620getForwardKinematicsERK11vpColVector@Base 2.6.2-1
 _ZN7vpAfma620getInverseKinematicsERK19vpHomogeneousMatrixR11vpColVectorRKb@Base 2.6.2-1
 _ZN7vpAfma623CONST_CCMOP_CAMERA_NAMEE@Base 2.6.2-1
 _ZN7vpAfma624CONST_VACUUM_CAMERA_NAMEE@Base 2.6.2-1
 _ZN7vpAfma625CONST_GENERIC_CAMERA_NAMEE@Base 2.6.2-1
 _ZN7vpAfma625CONST_GRIPPER_CAMERA_NAMEE@Base 2.6.2-1
 _ZN7vpAfma64initENS_15vpAfma6ToolTypeEN18vpCameraParameters26vpCameraParametersProjTypeE@Base 2.6.2-1
 _ZN7vpAfma64initEv@Base 2.6.2-1
 _ZN7vpAfma66njointE@Base 2.6.2-1
 _ZN7vpAfma67get_cMeER19vpHomogeneousMatrix@Base 2.6.2-1
 _ZN7vpAfma67get_cVeER21vpVelocityTwistMatrix@Base 2.6.2-1
 _ZN7vpAfma67get_eJeERK11vpColVectorR8vpMatrix@Base 2.6.2-1
 _ZN7vpAfma67get_fJeERK11vpColVectorR8vpMatrix@Base 2.6.2-1
 _ZN7vpAfma67get_fMcERK11vpColVector@Base 2.6.2-1
 _ZN7vpAfma67get_fMcERK11vpColVectorR19vpHomogeneousMatrix@Base 2.6.2-1
 _ZN7vpAfma67get_fMeERK11vpColVectorR19vpHomogeneousMatrix@Base 2.6.2-1
 _ZN7vpAfma69getLong56Ev@Base 2.6.2-1
 _ZN7vpAfma6C1Ev@Base 2.6.2-1
 _ZN7vpAfma6C2Ev@Base 2.6.2-1
 _ZN7vpAfma6D1Ev@Base 2.6.2-1
 _ZN7vpAfma6D2Ev@Base 2.6.2-1
 _ZN7vpColor10lightGreenE@Base 2.6.2-1
 _ZN7vpColor3redE@Base 2.6.2-1
 _ZN7vpColor4blueE@Base 2.6.2-1
 _ZN7vpColor4cyanE@Base 2.6.2-1
 _ZN7vpColor4grayE@Base 2.6.2-1
 _ZN7vpColor4noneE@Base 2.6.2-1
 _ZN7vpColor5blackE@Base 2.6.2-1
 _ZN7vpColor5greenE@Base 2.6.2-1
 _ZN7vpColor5whiteE@Base 2.6.2-1
 _ZN7vpColor6orangeE@Base 2.6.2-1
 _ZN7vpColor6purpleE@Base 2.6.2-1
 _ZN7vpColor6yellowE@Base 2.6.2-1
 _ZN7vpColor7darkRedE@Base 2.6.2-1
 _ZN7vpColor8darkBlueE@Base 2.6.2-1
 _ZN7vpColor8darkGrayE@Base 2.6.2-1
 _ZN7vpColor8lightRedE@Base 2.6.2-1
 _ZN7vpColor8nbColorsE@Base 2.6.2-1
 _ZN7vpColor9allColorsE@Base 2.6.2-1
 _ZN7vpColor9darkGreenE@Base 2.6.2-1
 _ZN7vpColor9lightBlueE@Base 2.6.2-1
 _ZN7vpColor9lightGrayE@Base 2.6.2-1
 _ZN7vpColorC1ERKS_@Base 2.6.2-1
 _ZN7vpColorC2ERKS_@Base 2.6.2-1
 _ZN7vpImageI6vpRGBaE4initEjj@Base 2.6.2-1
 _ZN7vpImageI6vpRGBaE4initEjjS0_@Base 2.6.2-1
 _ZN7vpImageI6vpRGBaE6resizeEjj@Base 2.6.2-1
 _ZN7vpImageI6vpRGBaEC1Ejj@Base 2.6.2-1
 _ZN7vpImageI6vpRGBaEC2Ejj@Base 2.6.2-1
 _ZN7vpImageI6vpRGBaED0Ev@Base 2.6.2-1
 _ZN7vpImageI6vpRGBaED1Ev@Base 2.6.2-1
 _ZN7vpImageI6vpRGBaED2Ev@Base 2.6.2-1
 _ZN7vpImageI6vpRGBaEaSERKS1_@Base 2.6.2-1
 _ZN7vpImageIdE4initEjj@Base 2.6.2-1
 _ZN7vpImageIfE4initEjj@Base 2.6.2-1
 _ZN7vpImageIhE4initEjj@Base 2.6.2-1
 _ZN7vpImageIhE4initEjjh@Base 2.6.2-1
 _ZN7vpImageIhE6resizeEjj@Base 2.6.2-1
 _ZN7vpImageIhEC1Ejj@Base 2.6.2-1
 _ZN7vpImageIhEC2Ejj@Base 2.6.2-1
 _ZN7vpImageIhED0Ev@Base 2.6.2-1
 _ZN7vpImageIhED1Ev@Base 2.6.2-1
 _ZN7vpImageIhED2Ev@Base 2.6.2-1
 _ZN7vpImageIhEaSERKS0_@Base 2.6.2-1
 _ZN7vpNurbs12curveKnotInsEdjj@Base 2.6.2-1
 _ZN7vpNurbs12curveKnotInsEdjjjjRSt6vectorIdSaIdEERS0_I12vpImagePointSaIS4_EES3_@Base 2.6.2-1
 _ZN7vpNurbs15removeCurveKnotEdjjd@Base 2.6.2-1
 _ZN7vpNurbs15removeCurveKnotEdjjdjjRSt6vectorIdSaIdEERS0_I12vpImagePointSaIS4_EES3_@Base 2.6.2-1
 _ZN7vpNurbs16computeCurveDersEdj@Base 2.6.2-1
 _ZN7vpNurbs16computeCurveDersEdjjjRSt6vectorIdSaIdEERS0_I12vpImagePointSaIS4_EES3_@Base 2.6.2-1
 _ZN7vpNurbs17computeCurvePointEd@Base 2.6.2-1
 _ZN7vpNurbs17computeCurvePointEdjjRSt6vectorIdSaIdEERS0_I12vpImagePointSaIS4_EES3_@Base 2.6.2-1
 _ZN7vpNurbs17globalCurveApproxER6vpListI12vpImagePointEj@Base 2.6.2-1
 _ZN7vpNurbs17globalCurveApproxER6vpListI8vpMeSiteEj@Base 2.6.2-1
 _ZN7vpNurbs17globalCurveApproxERKSt4listI12vpImagePointSaIS1_EEj@Base 2.6.2-1
 _ZN7vpNurbs17globalCurveApproxERKSt4listI8vpMeSiteSaIS1_EEj@Base 2.6.2-1
 _ZN7vpNurbs17globalCurveApproxERSt6vectorI12vpImagePointSaIS1_EEjjRS0_IdSaIdEES4_S7_@Base 2.6.2-1
 _ZN7vpNurbs17globalCurveApproxEj@Base 2.6.2-1
 _ZN7vpNurbs17globalCurveInterpER6vpListI12vpImagePointE@Base 2.6.2-1
 _ZN7vpNurbs17globalCurveInterpER6vpListI8vpMeSiteE@Base 2.6.2-1
 _ZN7vpNurbs17globalCurveInterpERKSt4listI12vpImagePointSaIS1_EE@Base 2.6.2-1
 _ZN7vpNurbs17globalCurveInterpERKSt4listI8vpMeSiteSaIS1_EE@Base 2.6.2-1
 _ZN7vpNurbs17globalCurveInterpERSt6vectorI12vpImagePointSaIS1_EEjRS0_IdSaIdEES4_S7_@Base 2.6.2-1
 _ZN7vpNurbs17globalCurveInterpEv@Base 2.6.2-1
 _ZN7vpNurbs19refineKnotVectCurveEPdj@Base 2.6.2-1
 _ZN7vpNurbs19refineKnotVectCurveEPdjjRSt6vectorIdSaIdEERS1_I12vpImagePointSaIS5_EES4_@Base 2.6.2-1
 _ZN7vpNurbs21computeCurveDersPointEdj@Base 2.6.2-1
 _ZN7vpNurbs21computeCurveDersPointEdjjjRSt6vectorIdSaIdEERS0_I12vpImagePointSaIS4_EES3_@Base 2.6.2-1
 _ZN7vpNurbsC1ERKS_@Base 2.6.2-1
 _ZN7vpNurbsC1Ev@Base 2.6.2-1
 _ZN7vpNurbsC2ERKS_@Base 2.6.2-1
 _ZN7vpNurbsC2Ev@Base 2.6.2-1
 _ZN7vpNurbsD0Ev@Base 2.6.2-1
 _ZN7vpNurbsD1Ev@Base 2.6.2-1
 _ZN7vpNurbsD2Ev@Base 2.6.2-1
 _ZN7vpPlane11changeFrameERK19vpHomogeneousMatrix@Base 2.6.2-1
 _ZN7vpPlane4initERK11vpColVectorS2_@Base 2.6.2-1
 _ZN7vpPlane4initERK7vpPointS2_S2_@Base 2.6.2-1
 _ZN7vpPlane4initERKS_@Base 2.6.2-1
 _ZN7vpPlaneC1ERK7vpPointRK11vpColVector@Base 2.6.2-1
 _ZN7vpPlaneC1ERK7vpPointS2_S2_@Base 2.6.2-1
 _ZN7vpPlaneC1ERKS_@Base 2.6.2-1
 _ZN7vpPlaneC1Edddd@Base 2.6.2-1
 _ZN7vpPlaneC1Ev@Base 2.6.2-1
 _ZN7vpPlaneC2ERK7vpPointRK11vpColVector@Base 2.6.2-1
 _ZN7vpPlaneC2ERK7vpPointS2_S2_@Base 2.6.2-1
 _ZN7vpPlaneC2ERKS_@Base 2.6.2-1
 _ZN7vpPlaneC2Edddd@Base 2.6.2-1
 _ZN7vpPlaneC2Ev@Base 2.6.2-1
 _ZN7vpPlaneaSERKS_@Base 2.6.2-1
 _ZN7vpPoint10projectionERK11vpColVectorRS0_@Base 2.6.2-1
 _ZN7vpPoint10projectionEv@Base 2.6.2-1
 _ZN7vpPoint11changeFrameERK19vpHomogeneousMatrix@Base 2.6.2-1
 _ZN7vpPoint11changeFrameERK19vpHomogeneousMatrixR11vpColVector@Base 2.6.2-1
 _ZN7vpPoint19getWorldCoordinatesER11vpColVector@Base 2.6.2-1
 _ZN7vpPoint19getWorldCoordinatesERdS0_S0_@Base 2.6.2-1
 _ZN7vpPoint19getWorldCoordinatesEv@Base 2.6.2-1
 _ZN7vpPoint19setWorldCoordinatesERK11vpColVector@Base 2.6.2-1
 _ZN7vpPoint19setWorldCoordinatesEddd@Base 2.6.2-1
 _ZN7vpPoint4initEv@Base 2.6.2-1
 _ZN7vpPoint7displayERK7vpImageI6vpRGBaERK19vpHomogeneousMatrixRK18vpCameraParametersRK7vpColorj@Base 2.6.2-1
 _ZN7vpPoint7displayERK7vpImageIhERK18vpCameraParametersRK7vpColorj@Base 2.6.2-1
 _ZN7vpPoint7displayERK7vpImageIhERK19vpHomogeneousMatrixRK18vpCameraParametersRK7vpColorj@Base 2.6.2-1
 _ZN7vpPointC1Ev@Base 2.6.2-1
 _ZN7vpPointC2Ev@Base 2.6.2-1
 _ZN7vpPointD0Ev@Base 2.6.2-1
 _ZN7vpPointD1Ev@Base 2.6.2-1
 _ZN7vpPointD2Ev@Base 2.6.2-1
 _ZN7vpPointaSERKS_@Base 2.6.2-1
 _ZN7vpPtu4610computeMGDERK11vpColVector@Base 2.6.2-1
 _ZN7vpPtu4610computeMGDERK11vpColVectorR12vpPoseVector@Base 2.6.2-1
 _ZN7vpPtu4610computeMGDERK11vpColVectorR19vpHomogeneousMatrix@Base 2.6.2-1
 _ZN7vpPtu461LE@Base 2.6.2-1
 _ZN7vpPtu461hE@Base 2.6.2-1
 _ZN7vpPtu464initEv@Base 2.6.2-1
 _ZN7vpPtu464ndofE@Base 2.6.2-1
 _ZN7vpPtu467get_cMeER19vpHomogeneousMatrix@Base 2.6.2-1
 _ZN7vpPtu467get_cVeER21vpVelocityTwistMatrix@Base 2.6.2-1
 _ZN7vpPtu467get_eJeERK11vpColVectorR8vpMatrix@Base 2.6.2-1
 _ZN7vpPtu467get_fJeERK11vpColVectorR8vpMatrix@Base 2.6.2-1
 _ZN7vpPtu46C1Ev@Base 2.6.2-1
 _ZN7vpPtu46C2Ev@Base 2.6.2-1
 _ZN7vpRobot11getPositionENS_18vpControlFrameTypeE@Base 2.6.2-1
 _ZN7vpRobot13getRobotStateEv@Base 2.6.2-1
 _ZN7vpRobot13setRobotFrameENS_18vpControlFrameTypeE@Base 2.6.2-1
 _ZN7vpRobot13setRobotStateENS_16vpRobotStateTypeE@Base 2.6.2-1
 _ZN7vpRobot18saturateVelocitiesERK11vpColVectorS2_b@Base 2.6.2-1
 _ZN7vpRobot22setMaxRotationVelocityEd@Base 2.6.2-1
 _ZN7vpRobot25setMaxTranslationVelocityEd@Base 2.6.2-1
 _ZN7vpRobot26maxRotationVelocityDefaultE@Base 2.6.2-1
 _ZN7vpRobot29maxTranslationVelocityDefaultE@Base 2.6.2-1
 _ZN7vpRobotC1Ev@Base 2.6.2-1
 _ZN7vpRobotC2Ev@Base 2.6.2-1
 _ZN7vpRobotD0Ev@Base 2.6.2-1
 _ZN7vpRobotD1Ev@Base 2.6.2-1
 _ZN7vpRobotD2Ev@Base 2.6.2-1
 _ZN7vpScale13KernelDensityER11vpColVectorj@Base 2.6.2-1
 _ZN7vpScale21KernelDensityGradientER11vpColVectorj@Base 2.6.2-1
 _ZN7vpScale26KernelDensity_EPANECHNIKOVER11vpColVector@Base 2.6.2-1
 _ZN7vpScale34KernelDensityGradient_EPANECHNIKOVEdj@Base 2.6.2-1
 _ZN7vpScale9MeanShiftER11vpColVector@Base 2.6.2-1
 _ZN7vpScaleC1Edii@Base 2.6.2-1
 _ZN7vpScaleC1Ev@Base 2.6.2-1
 _ZN7vpScaleC2Edii@Base 2.6.2-1
 _ZN7vpScaleC2Ev@Base 2.6.2-1
 _ZN7vpScaleD0Ev@Base 2.6.2-1
 _ZN7vpScaleD1Ev@Base 2.6.2-1
 _ZN7vpScaleD2Ev@Base 2.6.2-1
 _ZN7vpServo10addFeatureER14vpBasicFeatureS1_j@Base 2.6.2-1
 _ZN7vpServo10addFeatureER14vpBasicFeaturej@Base 2.6.2-1
 _ZN7vpServo11testUpdatedEv@Base 2.6.2-1
 _ZN7vpServo12computeErrorEv@Base 2.6.2-1
 _ZN7vpServo12getDimensionEv@Base 2.6.2-1
 _ZN7vpServo13secondaryTaskER11vpColVector@Base 2.6.2-1
 _ZN7vpServo13secondaryTaskER11vpColVectorS1_@Base 2.6.2-1
 _ZN7vpServo17computeControlLawEv@Base 2.6.2-1
 _ZN7vpServo18testInitializationEv@Base 2.6.2-1
 _ZN7vpServo24computeInteractionMatrixEv@Base 2.6.2-1
 _ZN7vpServo24setInteractionMatrixTypeERKNS_27vpServoIteractionMatrixTypeERKNS_20vpServoInversionTypeE@Base 2.6.2-1
 _ZN7vpServo4initEv@Base 2.6.2-1
 _ZN7vpServo4killEv@Base 2.6.2-1
 _ZN7vpServo5printENS_16vpServoPrintTypeERSo@Base 2.6.2-1
 _ZN7vpServo8setServoENS_11vpServoTypeE@Base 2.6.2-1
 _ZN7vpServoC1ENS_11vpServoTypeE@Base 2.6.2-1
 _ZN7vpServoC1Ev@Base 2.6.2-1
 _ZN7vpServoC2ENS_11vpServoTypeE@Base 2.6.2-1
 _ZN7vpServoC2Ev@Base 2.6.2-1
 _ZN7vpServoD0Ev@Base 2.6.2-1
 _ZN7vpServoD1Ev@Base 2.6.2-1
 _ZN7vpServoD2Ev@Base 2.6.2-1
 _ZN7vpViper10getCoupl56Ev@Base 2.6.2-1
 _ZN7vpViper11getJointMaxEv@Base 2.6.2-1
 _ZN7vpViper11getJointMinEv@Base 2.6.2-1
 _ZN7vpViper20getForwardKinematicsERK11vpColVector@Base 2.6.2-1
 _ZN7vpViper20getInverseKinematicsERK19vpHomogeneousMatrixR11vpColVector@Base 2.6.2-1
 _ZN7vpViper25getInverseKinematicsWristERK19vpHomogeneousMatrixR11vpColVector@Base 2.6.2-1
 _ZN7vpViper28convertJointPositionInLimitsEjRKdRd@Base 2.6.2-1
 _ZN7vpViper6njointE@Base 2.6.2-1
 _ZN7vpViper7get_cMeER19vpHomogeneousMatrix@Base 2.6.2-1
 _ZN7vpViper7get_cVeER21vpVelocityTwistMatrix@Base 2.6.2-1
 _ZN7vpViper7get_eJeERK11vpColVectorR8vpMatrix@Base 2.6.2-1
 _ZN7vpViper7get_eMcER19vpHomogeneousMatrix@Base 2.6.2-1
 _ZN7vpViper7get_fJeERK11vpColVectorR8vpMatrix@Base 2.6.2-1
 _ZN7vpViper7get_fJwERK11vpColVectorR8vpMatrix@Base 2.6.2-1
 _ZN7vpViper7get_fMcERK11vpColVector@Base 2.6.2-1
 _ZN7vpViper7get_fMcERK11vpColVectorR19vpHomogeneousMatrix@Base 2.6.2-1
 _ZN7vpViper7get_fMeERK11vpColVectorR19vpHomogeneousMatrix@Base 2.6.2-1
 _ZN7vpViper7get_fMwERK11vpColVectorR19vpHomogeneousMatrix@Base 2.6.2-1
 _ZN7vpViper7get_wMeER19vpHomogeneousMatrix@Base 2.6.2-1
 _ZN7vpViperC1Ev@Base 2.6.2-1
 _ZN7vpViperC2Ev@Base 2.6.2-1
 _ZN7vpViperD0Ev@Base 2.6.2-1
 _ZN7vpViperD1Ev@Base 2.6.2-1
 _ZN7vpViperD2Ev@Base 2.6.2-1
 _ZN8vpAROgre10frameEndedERKN4Ogre10FrameEventE@Base 2.6.2-1
 _ZN8vpAROgre10keyPressedERKN3OIS8KeyEventE@Base 2.6.2-1
 _ZN8vpAROgre11addRotationERKSsRK16vpRotationMatrix@Base 2.6.2-1
 _ZN8vpAROgre11createSceneEv@Base 2.6.2-1
 _ZN8vpAROgre11keyReleasedERKN3OIS8KeyEventE@Base 2.6.2-1
 _ZN8vpAROgre11setPositionERKSsRK19vpHomogeneousMatrix@Base 2.6.2-1
 _ZN8vpAROgre11setPositionERKSsRK19vpTranslationVector@Base 2.6.2-1
 _ZN8vpAROgre11setRotationERKSsRK16vpRotationMatrix@Base 2.6.2-1
 _ZN8vpAROgre11updateSceneERKN4Ogre10FrameEventE@Base 2.6.2-1
 _ZN8vpAROgre12createCameraEv@Base 2.6.2-1
 _ZN8vpAROgre12destroySceneEv@Base 2.6.2-1
 _ZN8vpAROgre12frameStartedERKN4Ogre10FrameEventE@Base 2.6.2-1
 _ZN8vpAROgre12windowClosedEPN4Ogre12RenderWindowE@Base 2.6.2-1
 _ZN8vpAROgre13setVisibilityERKSsb@Base 2.6.2-1
 _ZN8vpAROgre16createBackgroundER7vpImageI6vpRGBaE@Base 2.6.2-1
 _ZN8vpAROgre16createBackgroundER7vpImageIhE@Base 2.6.2-1
 _ZN8vpAROgre16customframeEndedERKN4Ogre10FrameEventE@Base 2.6.2-1
 _ZN8vpAROgre17continueRenderingEv@Base 2.6.2-1
 _ZN8vpAROgre17processInputEventERKN4Ogre10FrameEventE@Base 2.6.2-1
 _ZN8vpAROgre18customframeStartedERKN4Ogre10FrameEventE@Base 2.6.2-1
 _ZN8vpAROgre18getRenderingOutputER7vpImageI6vpRGBaER19vpHomogeneousMatrix@Base 2.6.2-1
 _ZN8vpAROgre19setCameraParametersERK18vpCameraParameters@Base 2.6.2-1
 _ZN8vpAROgre22updateCameraParametersERK19vpHomogeneousMatrix@Base 2.6.2-1
 _ZN8vpAROgre22updateCameraProjectionEv@Base 2.6.2-1
 _ZN8vpAROgre23updateBackgroundTextureERK7vpImageI6vpRGBaE@Base 2.6.2-1
 _ZN8vpAROgre23updateBackgroundTextureERK7vpImageIhE@Base 2.6.2-1
 _ZN8vpAROgre4initER7vpImageI6vpRGBaEb@Base 2.6.2-1
 _ZN8vpAROgre4initER7vpImageIhEb@Base 2.6.2-1
 _ZN8vpAROgre4initEb@Base 2.6.2-1
 _ZN8vpAROgre4loadERKSsS1_@Base 2.6.2-1
 _ZN8vpAROgre7displayERK7vpImageI6vpRGBaERK19vpHomogeneousMatrix@Base 2.6.2-1
 _ZN8vpAROgre7displayERK7vpImageIhERK19vpHomogeneousMatrix@Base 2.6.2-1
 _ZN8vpAROgre8closeOISEv@Base 2.6.2-1
 _ZN8vpAROgre8setScaleERKSsfff@Base 2.6.2-1
 _ZN8vpAROgre8stopTestERKN4Ogre10FrameEventE@Base 2.6.2-1
 _ZN8vpAROgreC1ERK18vpCameraParametersjjPKcS4_@Base 2.6.2-1
 _ZN8vpAROgreC2ERK18vpCameraParametersjjPKcS4_@Base 2.6.2-1
 _ZN8vpAROgreD0Ev@Base 2.6.2-1
 _ZN8vpAROgreD1Ev@Base 2.6.2-1
 _ZN8vpAROgreD2Ev@Base 2.6.2-1
 _ZN8vpCircle10projectionERK11vpColVectorRS0_@Base 2.6.2-1
 _ZN8vpCircle10projectionEv@Base 2.6.2-1
 _ZN8vpCircle11changeFrameERK19vpHomogeneousMatrix@Base 2.6.2-1
 _ZN8vpCircle11changeFrameERK19vpHomogeneousMatrixR11vpColVector@Base 2.6.2-1
 _ZN8vpCircle19setWorldCoordinatesERK11vpColVector@Base 2.6.2-1
 _ZN8vpCircle19setWorldCoordinatesEddddddd@Base 2.6.2-1
 _ZN8vpCircle4initEv@Base 2.6.2-1
 _ZN8vpCircle7displayERK7vpImageIhERK18vpCameraParametersRK7vpColorj@Base 2.6.2-1
 _ZN8vpCircle7displayERK7vpImageIhERK19vpHomogeneousMatrixRK18vpCameraParametersRK7vpColorj@Base 2.6.2-1
 _ZN8vpCircleC1ERK11vpColVector@Base 2.6.2-1
 _ZN8vpCircleC1Eddddddd@Base 2.6.2-1
 _ZN8vpCircleC1Ev@Base 2.6.2-1
 _ZN8vpCircleC2ERK11vpColVector@Base 2.6.2-1
 _ZN8vpCircleC2Eddddddd@Base 2.6.2-1
 _ZN8vpCircleC2Ev@Base 2.6.2-1
 _ZN8vpCircleD0Ev@Base 2.6.2-1
 _ZN8vpCircleD1Ev@Base 2.6.2-1
 _ZN8vpCircleD2Ev@Base 2.6.2-1
 _ZN8vpClient11connectToIPERKSsRKi@Base 2.6.2-1
 _ZN8vpClient13connectServerERN9vpNetwork10vpReceptorE@Base 2.6.2-1
 _ZN8vpClient17connectToHostnameERKSsRKi@Base 2.6.2-1
 _ZN8vpClient4stopEv@Base 2.6.2-1
 _ZN8vpClient5printEv@Base 2.6.2-1
 _ZN8vpClient9deconnectERKi@Base 2.6.2-1
 _ZN8vpClientC1Ev@Base 2.6.2-1
 _ZN8vpClientC2Ev@Base 2.6.2-1
 _ZN8vpClientD0Ev@Base 2.6.2-1
 _ZN8vpClientD1Ev@Base 2.6.2-1
 _ZN8vpClientD2Ev@Base 2.6.2-1
 _ZN8vpFFMPEG10copyBitmapER7vpImageI6vpRGBaE@Base 2.6.2-1
 _ZN8vpFFMPEG10copyBitmapER7vpImageIhE@Base 2.6.2-1
 _ZN8vpFFMPEG10initStreamEv@Base 2.6.2-1
 _ZN8vpFFMPEG10openStreamEPKcNS_17vpFFMPEGColorTypeE@Base 2.6.2-1
 _ZN8vpFFMPEG11closeStreamEv@Base 2.6.2-1
 _ZN8vpFFMPEG11openEncoderEPKcjj7CodecID@Base 2.6.2-1
 _ZN8vpFFMPEG11writeBitmapER7vpImageI6vpRGBaE@Base 2.6.2-1
 _ZN8vpFFMPEG11writeBitmapER7vpImageIhE@Base 2.6.2-1
 _ZN8vpFFMPEG7acquireER7vpImageI6vpRGBaE@Base 2.6.2-1
 _ZN8vpFFMPEG7acquireER7vpImageIhE@Base 2.6.2-1
 _ZN8vpFFMPEG8endWriteEv@Base 2.6.2-1
 _ZN8vpFFMPEG8getFrameER7vpImageI6vpRGBaEj@Base 2.6.2-1
 _ZN8vpFFMPEG8getFrameER7vpImageIhEj@Base 2.6.2-1
 _ZN8vpFFMPEG9saveFrameER7vpImageI6vpRGBaE@Base 2.6.2-1
 _ZN8vpFFMPEG9saveFrameER7vpImageIhE@Base 2.6.2-1
 _ZN8vpFFMPEGC1Ev@Base 2.6.2-1
 _ZN8vpFFMPEGC2Ev@Base 2.6.2-1
 _ZN8vpFFMPEGD1Ev@Base 2.6.2-1
 _ZN8vpFFMPEGD2Ev@Base 2.6.2-1
 _ZN8vpMatrix10loadMatrixEPKcRS_bPc@Base 2.6.2-1
 _ZN8vpMatrix10saveMatrixEPKcRKS_bS1_@Base 2.6.2-1
 _ZN8vpMatrix11eigenValuesER11vpColVectorRS_@Base 2.6.2-1
 _ZN8vpMatrix11eigenValuesEv@Base 2.6.2-1
 _ZN8vpMatrix11matlabPrintERSo@Base 2.6.2-1
 _ZN8vpMatrix11setIdentityERKd@Base 2.6.2-1
 _ZN8vpMatrix12add2MatricesERKS_S1_RS_@Base 2.6.2-1
 _ZN8vpMatrix12negateMatrixERKS_RS_@Base 2.6.2-1
 _ZN8vpMatrix12stackColumnsER11vpColVector@Base 2.6.2-1
 _ZN8vpMatrix12stackColumnsEv@Base 2.6.2-1
 _ZN8vpMatrix12sub2MatricesERKS_S1_RS_@Base 2.6.2-1
 _ZN8vpMatrix13mult2MatricesERKS_S1_RS_@Base 2.6.2-1
 _ZN8vpMatrix13stackMatricesERKS_@Base 2.6.2-1
 _ZN8vpMatrix13stackMatricesERKS_S1_@Base 2.6.2-1
 _ZN8vpMatrix13stackMatricesERKS_S1_RS_@Base 2.6.2-1
 _ZN8vpMatrix16multMatrixVectorERKS_RK11vpColVectorRS2_@Base 2.6.2-1
 _ZN8vpMatrix17juxtaposeMatricesERKS_S1_@Base 2.6.2-1
 _ZN8vpMatrix17juxtaposeMatricesERKS_S1_RS_@Base 2.6.2-1
 _ZN8vpMatrix20add2WeightedMatricesERKS_RKdS1_S3_RS_@Base 2.6.2-1
 _ZN8vpMatrix20createDiagonalMatrixERK11vpColVectorRS_@Base 2.6.2-1
 _ZN8vpMatrix23computeCovarianceMatrixERKS_RK11vpColVectorS4_@Base 2.6.2-1
 _ZN8vpMatrix23computeCovarianceMatrixERKS_RK11vpColVectorS4_S1_@Base 2.6.2-1
 _ZN8vpMatrix3eyeEj@Base 2.6.2-1
 _ZN8vpMatrix3eyeEjj@Base 2.6.2-1
 _ZN8vpMatrix3rowEj@Base 2.6.2-1
 _ZN8vpMatrix3svdER11vpColVectorRS_@Base 2.6.2-1
 _ZN8vpMatrix4diagERK11vpColVector@Base 2.6.2-1
 _ZN8vpMatrix4expmEv@Base 2.6.2-1
 _ZN8vpMatrix4initERKS_jjjj@Base 2.6.2-1
 _ZN8vpMatrix4initEv@Base 2.6.2-1
 _ZN8vpMatrix4killEv@Base 2.6.2-1
 _ZN8vpMatrix4kronERKS_@Base 2.6.2-1
 _ZN8vpMatrix4kronERKS_RS_@Base 2.6.2-1
 _ZN8vpMatrix4kronERKS_S1_@Base 2.6.2-1
 _ZN8vpMatrix4kronERKS_S1_RS_@Base 2.6.2-1
 _ZN8vpMatrix5printERSojPKc@Base 2.6.2-1
 _ZN8vpMatrix5svdNrER11vpColVectorRS_@Base 2.6.2-1
 _ZN8vpMatrix6LUBksbEPjR11vpColVector@Base 2.6.2-1
 _ZN8vpMatrix6LUDcmpEPjRi@Base 2.6.2-1
 _ZN8vpMatrix6SVBksbERK11vpColVectorRKS_S2_RS0_@Base 2.6.2-1
 _ZN8vpMatrix6columnEj@Base 2.6.2-1
 _ZN8vpMatrix6insertERKS_S1_RS_jj@Base 2.6.2-1
 _ZN8vpMatrix6insertERKS_S1_jj@Base 2.6.2-1
 _ZN8vpMatrix6insertERKS_jj@Base 2.6.2-1
 _ZN8vpMatrix6kernelERS_d@Base 2.6.2-1
 _ZN8vpMatrix6resizeEjjb@Base 2.6.2-1
 _ZN8vpMatrix8cppPrintERSoPKcb@Base 2.6.2-1
 _ZN8vpMatrix8svdFlakeER11vpColVectorRS_@Base 2.6.2-1
 _ZN8vpMatrix9stackRowsER11vpRowVector@Base 2.6.2-1
 _ZN8vpMatrix9stackRowsEv@Base 2.6.2-1
 _ZN8vpMatrix9svdLapackER11vpColVectorRS_@Base 2.6.2-1
 _ZN8vpMatrix9svdOpenCVER11vpColVectorRS_@Base 2.6.2-1
 _ZN8vpMatrixC1ERKS_@Base 2.6.2-1
 _ZN8vpMatrixC1ERKS_jjjj@Base 2.6.2-1
 _ZN8vpMatrixC1Ejj@Base 2.6.2-1
 _ZN8vpMatrixC1Ev@Base 2.6.2-1
 _ZN8vpMatrixC2ERKS_@Base 2.6.2-1
 _ZN8vpMatrixC2ERKS_jjjj@Base 2.6.2-1
 _ZN8vpMatrixC2Ejj@Base 2.6.2-1
 _ZN8vpMatrixC2Ev@Base 2.6.2-1
 _ZN8vpMatrixD0Ev@Base 2.6.2-1
 _ZN8vpMatrixD1Ev@Base 2.6.2-1
 _ZN8vpMatrixD2Ev@Base 2.6.2-1
 _ZN8vpMatrixaSERKS_@Base 2.6.2-1
 _ZN8vpMatrixaSEd@Base 2.6.2-1
 _ZN8vpMatrixdVEd@Base 2.6.2-1
 _ZN8vpMatrixlsEPd@Base 2.6.2-1
 _ZN8vpMatrixmIERKS_@Base 2.6.2-1
 _ZN8vpMatrixmIEd@Base 2.6.2-1
 _ZN8vpMatrixmLEd@Base 2.6.2-1
 _ZN8vpMatrixpLERKS_@Base 2.6.2-1
 _ZN8vpMatrixpLEd@Base 2.6.2-1
 _ZN8vpMeLine11leastSquareEv@Base 2.6.2-1
 _ZN8vpMeLine11updateDeltaEv@Base 2.6.2-1
 _ZN8vpMeLine12initTrackingERK7vpImageIhE@Base 2.6.2-1
 _ZN8vpMeLine12initTrackingERK7vpImageIhERK12vpImagePointS6_@Base 2.6.2-1
 _ZN8vpMeLine12intersectionERKS_S1_R12vpImagePoint@Base 2.6.2-1
 _ZN8vpMeLine14getExtremitiesER12vpImagePointS1_@Base 2.6.2-1
 _ZN8vpMeLine14setExtremitiesEv@Base 2.6.2-1
 _ZN8vpMeLine14suppressPointsEv@Base 2.6.2-1
 _ZN8vpMeLine14update_indicesEdiiiRiS0_S0_S0_@Base 2.6.2-1
 _ZN8vpMeLine15computeRhoThetaERK7vpImageIhE@Base 2.6.2-1
 _ZN8vpMeLine15seekExtremitiesERK7vpImageIhE@Base 2.6.2-1
 _ZN8vpMeLine5trackERK7vpImageIhE@Base 2.6.2-1
 _ZN8vpMeLine6sampleERK7vpImageIhE@Base 2.6.2-1
 _ZN8vpMeLine7displayERK7vpImageIhE7vpColor@Base 2.6.2-1
 _ZN8vpMeLine7displayERK7vpImageIhERK8vpMeSiteS6_RKSt4listIS4_SaIS4_EERKdSD_SD_7vpColorj@Base 2.6.2-1
 _ZN8vpMeLine7displayERK7vpImageIhERK8vpMeSiteS6_RKdS8_S8_7vpColorj@Base 2.6.2-1
 _ZN8vpMeLine8reSampleERK7vpImageIhE@Base 2.6.2-1
 _ZN8vpMeLineC1ERKS_@Base 2.6.2-1
 _ZN8vpMeLineC1Ev@Base 2.6.2-1
 _ZN8vpMeLineC2ERKS_@Base 2.6.2-1
 _ZN8vpMeLineC2Ev@Base 2.6.2-1
 _ZN8vpMeLineD0Ev@Base 2.6.2-1
 _ZN8vpMeLineD1Ev@Base 2.6.2-1
 _ZN8vpMeLineD2Ev@Base 2.6.2-1
 _ZN8vpMeSite11convolutionERK7vpImageIhEPK4vpMe@Base 2.6.2-1
 _ZN8vpMeSite12getQueryListERK7vpImageIhEi@Base 2.6.2-1
 _ZN8vpMeSite4initEddd@Base 2.6.2-1
 _ZN8vpMeSite4initEdddd@Base 2.6.2-1
 _ZN8vpMeSite4initEddddi@Base 2.6.2-1
 _ZN8vpMeSite4initEv@Base 2.6.2-1
 _ZN8vpMeSite5trackERK7vpImageIhEPK4vpMeb@Base 2.6.2-1
 _ZN8vpMeSite7displayERK7vpImageIhE@Base 2.6.2-1
 _ZN8vpMeSite7displayERK7vpImageIhERKdS5_RKNS_13vpMeSiteStateE@Base 2.6.2-1
 _ZN8vpMeSite7getSignERK7vpImageIhEi@Base 2.6.2-1
 _ZN8vpMeSiteC1ERKS_@Base 2.6.2-1
 _ZN8vpMeSiteC1Edd@Base 2.6.2-1
 _ZN8vpMeSiteC1Ev@Base 2.6.2-1
 _ZN8vpMeSiteC2ERKS_@Base 2.6.2-1
 _ZN8vpMeSiteC2Edd@Base 2.6.2-1
 _ZN8vpMeSiteC2Ev@Base 2.6.2-1
 _ZN8vpMeSiteD0Ev@Base 2.6.2-1
 _ZN8vpMeSiteD1Ev@Base 2.6.2-1
 _ZN8vpMeSiteD2Ev@Base 2.6.2-1
 _ZN8vpMeSiteaSERKS_@Base 2.6.2-1
 _ZN8vpMeSiteneERKS_@Base 2.6.2-1
 _ZN8vpMoment6linkToER16vpMomentDatabase@Base 2.6.2-1
 _ZN8vpMoment6updateER14vpMomentObject@Base 2.6.2-1
 _ZN8vpMomentC1Ev@Base 2.6.2-1
 _ZN8vpMomentC2Ev@Base 2.6.2-1
 _ZN8vpMomentD0Ev@Base 2.6.2-1
 _ZN8vpMomentD1Ev@Base 2.6.2-1
 _ZN8vpMomentD2Ev@Base 2.6.2-1
 _ZN8vpRansacI12vpHomographyE6ransacEjR11vpColVectorjdS3_S3_idi@Base 2.6.2-1
 _ZN8vpRansacI6vpPoseE6ransacEjR11vpColVectorjdS3_S3_idi@Base 2.6.2-1
 _ZN8vpRobust10MEstimatorENS_21vpRobustEstimatorTypeERK11vpColVectorRS1_@Base 2.6.2-1
 _ZN8vpRobust10MEstimatorENS_21vpRobustEstimatorTypeERK11vpColVectorS3_RS1_@Base 2.6.2-1
 _ZN8vpRobust11simultscaleER11vpColVector@Base 2.6.2-1
 _ZN8vpRobust14constrainedChiENS_21vpRobustEstimatorTypeEd@Base 2.6.2-1
 _ZN8vpRobust16simultMEstimatorER11vpColVector@Base 2.6.2-1
 _ZN8vpRobust16simult_chi_huberEd@Base 2.6.2-1
 _ZN8vpRobust19constrainedChiHuberEd@Base 2.6.2-1
 _ZN8vpRobust19constrainedChiTukeyEd@Base 2.6.2-1
 _ZN8vpRobust20constrainedChiCauchyEd@Base 2.6.2-1
 _ZN8vpRobust23computeNormalizedMedianER11vpColVectorRKS0_S3_S3_@Base 2.6.2-1
 _ZN8vpRobust3erfEd@Base 2.6.2-1
 _ZN8vpRobust3gcfEPdddS0_@Base 2.6.2-1
 _ZN8vpRobust4gserEPdddS0_@Base 2.6.2-1
 _ZN8vpRobust5gammpEdd@Base 2.6.2-1
 _ZN8vpRobust5scaleENS_21vpRobustEstimatorTypeER11vpColVector@Base 2.6.2-1
 _ZN8vpRobust6gammlnEd@Base 2.6.2-1
 _ZN8vpRobust6resizeEj@Base 2.6.2-1
 _ZN8vpRobust6selectER11vpColVectorjjj@Base 2.6.2-1
 _ZN8vpRobust8psiHuberEdR11vpColVectorS1_@Base 2.6.2-1
 _ZN8vpRobust8psiTukeyEdR11vpColVectorS1_@Base 2.6.2-1
 _ZN8vpRobust9partitionER11vpColVectorjj@Base 2.6.2-1
 _ZN8vpRobust9psiCauchyEdR11vpColVectorS1_@Base 2.6.2-1
 _ZN8vpRobust9psiMcLureEdR11vpColVectorS1_@Base 2.6.2-1
 _ZN8vpRobustC1Ej@Base 2.6.2-1
 _ZN8vpRobustC2Ej@Base 2.6.2-1
 _ZN8vpRobustD0Ev@Base 2.6.2-1
 _ZN8vpRobustD1Ev@Base 2.6.2-1
 _ZN8vpRobustD2Ev@Base 2.6.2-1
 _ZN8vpServer19checkForConnectionsEv@Base 2.6.2-1
 _ZN8vpServer5printEv@Base 2.6.2-1
 _ZN8vpServer5startEv@Base 2.6.2-1
 _ZN8vpServerC1ERKSsRKi@Base 2.6.2-1
 _ZN8vpServerC1ERKi@Base 2.6.2-1
 _ZN8vpServerC1Ev@Base 2.6.2-1
 _ZN8vpServerC2ERKSsRKi@Base 2.6.2-1
 _ZN8vpServerC2ERKi@Base 2.6.2-1
 _ZN8vpServerC2Ev@Base 2.6.2-1
 _ZN8vpServerD0Ev@Base 2.6.2-1
 _ZN8vpServerD1Ev@Base 2.6.2-1
 _ZN8vpServerD2Ev@Base 2.6.2-1
 _ZN8vpSphere10projectionERK11vpColVectorRS0_@Base 2.6.2-1
 _ZN8vpSphere10projectionEv@Base 2.6.2-1
 _ZN8vpSphere11changeFrameERK19vpHomogeneousMatrix@Base 2.6.2-1
 _ZN8vpSphere11changeFrameERK19vpHomogeneousMatrixR11vpColVector@Base 2.6.2-1
 _ZN8vpSphere19setWorldCoordinatesERK11vpColVector@Base 2.6.2-1
 _ZN8vpSphere19setWorldCoordinatesEdddd@Base 2.6.2-1
 _ZN8vpSphere4initEv@Base 2.6.2-1
 _ZN8vpSphere7displayERK7vpImageIhERK18vpCameraParametersRK7vpColorj@Base 2.6.2-1
 _ZN8vpSphere7displayERK7vpImageIhERK19vpHomogeneousMatrixRK18vpCameraParametersRK7vpColorj@Base 2.6.2-1
 _ZN8vpSphereC1ERK11vpColVector@Base 2.6.2-1
 _ZN8vpSphereC1Edddd@Base 2.6.2-1
 _ZN8vpSphereC1Ev@Base 2.6.2-1
 _ZN8vpSphereC2ERK11vpColVector@Base 2.6.2-1
 _ZN8vpSphereC2Edddd@Base 2.6.2-1
 _ZN8vpSphereC2Ev@Base 2.6.2-1
 _ZN8vpSphereD0Ev@Base 2.6.2-1
 _ZN8vpSphereD1Ev@Base 2.6.2-1
 _ZN8vpSphereD2Ev@Base 2.6.2-1
 _ZN9vpBSpline16computeBasisFunsEd@Base 2.6.2-1
 _ZN9vpBSpline16computeBasisFunsEdjjRSt6vectorIdSaIdEE@Base 2.6.2-1
 _ZN9vpBSpline16computeCurveDersEdj@Base 2.6.2-1
 _ZN9vpBSpline16computeCurveDersEdjjjRSt6vectorIdSaIdEERS0_I12vpImagePointSaIS4_EE@Base 2.6.2-1
 _ZN9vpBSpline17computeCurvePointEd@Base 2.6.2-1
 _ZN9vpBSpline17computeCurvePointEdjjRSt6vectorIdSaIdEERS0_I12vpImagePointSaIS4_EE@Base 2.6.2-1
 _ZN9vpBSpline20computeDersBasisFunsEdj@Base 2.6.2-1
 _ZN9vpBSpline20computeDersBasisFunsEdjjjRSt6vectorIdSaIdEE@Base 2.6.2-1
 _ZN9vpBSpline8findSpanEd@Base 2.6.2-1
 _ZN9vpBSpline8findSpanEdjRSt6vectorIdSaIdEE@Base 2.6.2-1
 _ZN9vpBSplineC1ERKS_@Base 2.6.2-1
 _ZN9vpBSplineC1Ev@Base 2.6.2-1
 _ZN9vpBSplineC2ERKS_@Base 2.6.2-1
 _ZN9vpBSplineC2Ev@Base 2.6.2-1
 _ZN9vpBSplineD0Ev@Base 2.6.2-1
 _ZN9vpBSplineD1Ev@Base 2.6.2-1
 _ZN9vpBSplineD2Ev@Base 2.6.2-1
 _ZN9vpBiclops10computeMGDERK11vpColVector@Base 2.6.2-1
 _ZN9vpBiclops10computeMGDERK11vpColVectorR12vpPoseVector@Base 2.6.2-1
 _ZN9vpBiclops10computeMGDERK11vpColVectorR19vpHomogeneousMatrix@Base 2.6.2-1
 _ZN9vpBiclops10speedLimitE@Base 2.6.2-1
 _ZN9vpBiclops13panJointLimitE@Base 2.6.2-1
 _ZN9vpBiclops14tiltJointLimitE@Base 2.6.2-1
 _ZN9vpBiclops1hE@Base 2.6.2-1
 _ZN9vpBiclops4initEv@Base 2.6.2-1
 _ZN9vpBiclops4ndofE@Base 2.6.2-1
 _ZN9vpBiclops7get_cVeER21vpVelocityTwistMatrix@Base 2.6.2-1
 _ZN9vpBiclops7get_eJeERK11vpColVectorR8vpMatrix@Base 2.6.2-1
 _ZN9vpBiclops7get_fJeERK11vpColVectorR8vpMatrix@Base 2.6.2-1
 _ZN9vpBiclops7get_fMcERK11vpColVector@Base 2.6.2-1
 _ZN9vpBiclops7get_fMcERK11vpColVectorR12vpPoseVector@Base 2.6.2-1
 _ZN9vpBiclops7get_fMcERK11vpColVectorR19vpHomogeneousMatrix@Base 2.6.2-1
 _ZN9vpBiclops7get_fMeERK11vpColVector@Base 2.6.2-1
 _ZN9vpBiclops7set_cMeEv@Base 2.6.2-1
 _ZN9vpBiclopsC1Ev@Base 2.6.2-1
 _ZN9vpBiclopsC2Ev@Base 2.6.2-1
 _ZN9vpDisplay10displayROIERK7vpImageI6vpRGBaERK6vpRect@Base 2.6.2-1
 _ZN9vpDisplay10displayROIERK7vpImageIhERK6vpRect@Base 2.6.2-1
 _ZN9vpDisplay10getClickUpERK7vpImageI6vpRGBaER12vpImagePointRN13vpMouseButton17vpMouseButtonTypeEb@Base 2.6.2-1
 _ZN9vpDisplay10getClickUpERK7vpImageIhER12vpImagePointRN13vpMouseButton17vpMouseButtonTypeEb@Base 2.6.2-1
 _ZN9vpDisplay11displayLineERK7vpImageI6vpRGBaERK12vpImagePointS7_RK7vpColorj@Base 2.6.2-1
 _ZN9vpDisplay11displayLineERK7vpImageI6vpRGBaEiiiiRK7vpColorj@Base 2.6.2-1
 _ZN9vpDisplay11displayLineERK7vpImageIhERK12vpImagePointS6_RK7vpColorj@Base 2.6.2-1
 _ZN9vpDisplay11displayLineERK7vpImageIhEiiiiRK7vpColorj@Base 2.6.2-1
 _ZN9vpDisplay12displayArrowERK7vpImageI6vpRGBaERK12vpImagePointS7_RK7vpColorjjj@Base 2.6.2-1
 _ZN9vpDisplay12displayArrowERK7vpImageI6vpRGBaEiiiiRK7vpColorjjj@Base 2.6.2-1
 _ZN9vpDisplay12displayArrowERK7vpImageIhERK12vpImagePointS6_RK7vpColorjjj@Base 2.6.2-1
 _ZN9vpDisplay12displayArrowERK7vpImageIhEiiiiRK7vpColorjjj@Base 2.6.2-1
 _ZN9vpDisplay12displayCrossERK7vpImageI6vpRGBaERK12vpImagePointjRK7vpColorj@Base 2.6.2-1
 _ZN9vpDisplay12displayCrossERK7vpImageI6vpRGBaEiijRK7vpColorj@Base 2.6.2-1
 _ZN9vpDisplay12displayCrossERK7vpImageIhERK12vpImagePointjRK7vpColorj@Base 2.6.2-1
 _ZN9vpDisplay12displayCrossERK7vpImageIhEiijRK7vpColorj@Base 2.6.2-1
 _ZN9vpDisplay12displayFrameERK7vpImageI6vpRGBaERK19vpHomogeneousMatrixRK18vpCameraParametersdRK7vpColorj@Base 2.6.2-1
 _ZN9vpDisplay12displayFrameERK7vpImageIhERK19vpHomogeneousMatrixRK18vpCameraParametersdRK7vpColorj@Base 2.6.2-1
 _ZN9vpDisplay12displayPointERK7vpImageI6vpRGBaERK12vpImagePointRK7vpColor@Base 2.6.2-1
 _ZN9vpDisplay12displayPointERK7vpImageI6vpRGBaEiiRK7vpColor@Base 2.6.2-1
 _ZN9vpDisplay12displayPointERK7vpImageIhERK12vpImagePointRK7vpColor@Base 2.6.2-1
 _ZN9vpDisplay12displayPointERK7vpImageIhEiiRK7vpColor@Base 2.6.2-1
 _ZN9vpDisplay13displayCameraERK7vpImageI6vpRGBaERK19vpHomogeneousMatrixRK18vpCameraParametersdRK7vpColor@Base 2.6.2-1
 _ZN9vpDisplay13displayCameraERK7vpImageIhERK19vpHomogeneousMatrixRK18vpCameraParametersdRK7vpColor@Base 2.6.2-1
 _ZN9vpDisplay13displayCircleERK7vpImageI6vpRGBaERK12vpImagePointjRK7vpColorbj@Base 2.6.2-1
 _ZN9vpDisplay13displayCircleERK7vpImageI6vpRGBaEiijRK7vpColorbj@Base 2.6.2-1
 _ZN9vpDisplay13displayCircleERK7vpImageIhERK12vpImagePointjRK7vpColorbj@Base 2.6.2-1
 _ZN9vpDisplay13displayCircleERK7vpImageIhEiijRK7vpColorbj@Base 2.6.2-1
 _ZN9vpDisplay13setBackgroundERK7vpImageI6vpRGBaERK7vpColor@Base 2.6.2-1
 _ZN9vpDisplay13setBackgroundERK7vpImageIhERK7vpColor@Base 2.6.2-1
 _ZN9vpDisplay14displayDotLineERK7vpImageI6vpRGBaERK12vpImagePointS7_RK7vpColorj@Base 2.6.2-1
 _ZN9vpDisplay14displayDotLineERK7vpImageI6vpRGBaEiiiiRK7vpColorj@Base 2.6.2-1
 _ZN9vpDisplay14displayDotLineERK7vpImageIhERK12vpImagePointS6_RK7vpColorj@Base 2.6.2-1
 _ZN9vpDisplay14displayDotLineERK7vpImageIhEiiiiRK7vpColorj@Base 2.6.2-1
 _ZN9vpDisplay16displayRectangleERK7vpImageI6vpRGBaERK12vpImagePointS7_RK7vpColorbj@Base 2.6.2-1
 _ZN9vpDisplay16displayRectangleERK7vpImageI6vpRGBaERK12vpImagePointfjjRK7vpColorj@Base 2.6.2-1
 _ZN9vpDisplay16displayRectangleERK7vpImageI6vpRGBaERK12vpImagePointjjRK7vpColorbj@Base 2.6.2-1
 _ZN9vpDisplay16displayRectangleERK7vpImageI6vpRGBaERK6vpRectRK7vpColorbj@Base 2.6.2-1
 _ZN9vpDisplay16displayRectangleERK7vpImageI6vpRGBaEiijjRK7vpColorbj@Base 2.6.2-1
 _ZN9vpDisplay16displayRectangleERK7vpImageI6vpRGBaEjjfjjRK7vpColorj@Base 2.6.2-1
 _ZN9vpDisplay16displayRectangleERK7vpImageIhERK12vpImagePointS6_RK7vpColorbj@Base 2.6.2-1
 _ZN9vpDisplay16displayRectangleERK7vpImageIhERK12vpImagePointfjjRK7vpColorj@Base 2.6.2-1
 _ZN9vpDisplay16displayRectangleERK7vpImageIhERK12vpImagePointjjRK7vpColorbj@Base 2.6.2-1
 _ZN9vpDisplay16displayRectangleERK7vpImageIhERK6vpRectRK7vpColorbj@Base 2.6.2-1
 _ZN9vpDisplay16displayRectangleERK7vpImageIhEiijjRK7vpColorbj@Base 2.6.2-1
 _ZN9vpDisplay16displayRectangleERK7vpImageIhEjjfjjRK7vpColorj@Base 2.6.2-1
 _ZN9vpDisplay16getKeyboardEventERK7vpImageI6vpRGBaEPcb@Base 2.6.2-1
 _ZN9vpDisplay16getKeyboardEventERK7vpImageI6vpRGBaEb@Base 2.6.2-1
 _ZN9vpDisplay16getKeyboardEventERK7vpImageIhEPcb@Base 2.6.2-1
 _ZN9vpDisplay16getKeyboardEventERK7vpImageIhEb@Base 2.6.2-1
 _ZN9vpDisplay17displayCharStringERK7vpImageI6vpRGBaERK12vpImagePointPKcRK7vpColor@Base 2.6.2-1
 _ZN9vpDisplay17displayCharStringERK7vpImageI6vpRGBaEiiPKcRK7vpColor@Base 2.6.2-1
 _ZN9vpDisplay17displayCharStringERK7vpImageIhERK12vpImagePointPKcRK7vpColor@Base 2.6.2-1
 _ZN9vpDisplay17displayCharStringERK7vpImageIhEiiPKcRK7vpColor@Base 2.6.2-1
 _ZN9vpDisplay17setWindowPositionERK7vpImageI6vpRGBaEii@Base 2.6.2-1
 _ZN9vpDisplay17setWindowPositionERK7vpImageIhEii@Base 2.6.2-1
 _ZN9vpDisplay18getPointerPositionERK7vpImageI6vpRGBaER12vpImagePoint@Base 2.6.2-1
 _ZN9vpDisplay18getPointerPositionERK7vpImageIhER12vpImagePoint@Base 2.6.2-1
 _ZN9vpDisplay21getPointerMotionEventERK7vpImageI6vpRGBaER12vpImagePoint@Base 2.6.2-1
 _ZN9vpDisplay21getPointerMotionEventERK7vpImageIhER12vpImagePoint@Base 2.6.2-1
 _ZN9vpDisplay5closeERK7vpImageI6vpRGBaE@Base 2.6.2-1
 _ZN9vpDisplay5closeERK7vpImageIhE@Base 2.6.2-1
 _ZN9vpDisplay5flushERK7vpImageI6vpRGBaE@Base 2.6.2-1
 _ZN9vpDisplay5flushERK7vpImageIhE@Base 2.6.2-1
 _ZN9vpDisplay7displayERK7vpImageI6vpRGBaE@Base 2.6.2-1
 _ZN9vpDisplay7displayERK7vpImageIhE@Base 2.6.2-1
 _ZN9vpDisplay7setFontERK7vpImageI6vpRGBaEPKc@Base 2.6.2-1
 _ZN9vpDisplay7setFontERK7vpImageIhEPKc@Base 2.6.2-1
 _ZN9vpDisplay8flushROIERK7vpImageI6vpRGBaERK6vpRect@Base 2.6.2-1
 _ZN9vpDisplay8flushROIERK7vpImageIhERK6vpRect@Base 2.6.2-1
 _ZN9vpDisplay8getClickERK7vpImageI6vpRGBaER12vpImagePointRN13vpMouseButton17vpMouseButtonTypeEb@Base 2.6.2-1
 _ZN9vpDisplay8getClickERK7vpImageI6vpRGBaER12vpImagePointb@Base 2.6.2-1
 _ZN9vpDisplay8getClickERK7vpImageI6vpRGBaEb@Base 2.6.2-1
 _ZN9vpDisplay8getClickERK7vpImageIhER12vpImagePointRN13vpMouseButton17vpMouseButtonTypeEb@Base 2.6.2-1
 _ZN9vpDisplay8getClickERK7vpImageIhER12vpImagePointb@Base 2.6.2-1
 _ZN9vpDisplay8getClickERK7vpImageIhEb@Base 2.6.2-1
 _ZN9vpDisplay8getImageERK7vpImageI6vpRGBaERS2_@Base 2.6.2-1
 _ZN9vpDisplay8getImageERK7vpImageIhERS0_I6vpRGBaE@Base 2.6.2-1
 _ZN9vpDisplay8setTitleERK7vpImageI6vpRGBaEPKc@Base 2.6.2-1
 _ZN9vpDisplay8setTitleERK7vpImageIhEPKc@Base 2.6.2-1
 _ZN9vpDisplayC1Ev@Base 2.6.2-1
 _ZN9vpDisplayC2Ev@Base 2.6.2-1
 _ZN9vpDisplayD0Ev@Base 2.6.2-1
 _ZN9vpDisplayD1Ev@Base 2.6.2-1
 _ZN9vpDisplayD2Ev@Base 2.6.2-1
 _ZN9vpHinkley11computeMeanEd@Base 2.6.2-1
 _ZN9vpHinkley14testUpwardJumpEd@Base 2.6.2-1
 _ZN9vpHinkley16testDownwardJumpEd@Base 2.6.2-1
 _ZN9vpHinkley18testDownUpwardJumpEd@Base 2.6.2-1
 _ZN9vpHinkley4initEdd@Base 2.6.2-1
 _ZN9vpHinkley4initEv@Base 2.6.2-1
 _ZN9vpHinkley5printENS_17vpHinkleyJumpTypeE@Base 2.6.2-1
 _ZN9vpHinkley8setAlphaEd@Base 2.6.2-1
 _ZN9vpHinkley8setDeltaEd@Base 2.6.2-1
 _ZN9vpHinkley9computeMkEv@Base 2.6.2-1
 _ZN9vpHinkley9computeNkEv@Base 2.6.2-1
 _ZN9vpHinkley9computeSkEd@Base 2.6.2-1
 _ZN9vpHinkley9computeTkEd@Base 2.6.2-1
 _ZN9vpHinkleyC1Edd@Base 2.6.2-1
 _ZN9vpHinkleyC1Ev@Base 2.6.2-1
 _ZN9vpHinkleyC2Edd@Base 2.6.2-1
 _ZN9vpHinkleyC2Ev@Base 2.6.2-1
 _ZN9vpHinkleyD1Ev@Base 2.6.2-1
 _ZN9vpHinkleyD2Ev@Base 2.6.2-1
 _ZN9vpImageIo12getExtensionERKSs@Base 2.6.2-1
 _ZN9vpImageIo12openFileReadEPKc@Base 2.6.2-1
 _ZN9vpImageIo12openFileReadESs@Base 2.6.2-1
 _ZN9vpImageIo13openFileWriteEPKcS1_@Base 2.6.2-1
 _ZN9vpImageIo13openFileWriteESsSs@Base 2.6.2-1
 _ZN9vpImageIo4readER7vpImageI6vpRGBaEPKc@Base 2.6.2-1
 _ZN9vpImageIo4readER7vpImageI6vpRGBaESs@Base 2.6.2-1
 _ZN9vpImageIo4readER7vpImageIhEPKc@Base 2.6.2-1
 _ZN9vpImageIo4readER7vpImageIhESs@Base 2.6.2-1
 _ZN9vpImageIo5writeERK7vpImageI6vpRGBaEPKc@Base 2.6.2-1
 _ZN9vpImageIo5writeERK7vpImageI6vpRGBaESs@Base 2.6.2-1
 _ZN9vpImageIo5writeERK7vpImageIhEPKc@Base 2.6.2-1
 _ZN9vpImageIo5writeERK7vpImageIhESs@Base 2.6.2-1
 _ZN9vpImageIo7readPFMER7vpImageIfEPKc@Base 2.6.2-1
 _ZN9vpImageIo7readPGMER7vpImageI6vpRGBaEPKc@Base 2.6.2-1
 _ZN9vpImageIo7readPGMER7vpImageI6vpRGBaESs@Base 2.6.2-1
 _ZN9vpImageIo7readPGMER7vpImageIhEPKc@Base 2.6.2-1
 _ZN9vpImageIo7readPGMER7vpImageIhESs@Base 2.6.2-1
 _ZN9vpImageIo7readPNGER7vpImageI6vpRGBaEPKc@Base 2.6.2-1
 _ZN9vpImageIo7readPNGER7vpImageI6vpRGBaESs@Base 2.6.2-1
 _ZN9vpImageIo7readPNGER7vpImageIhEPKc@Base 2.6.2-1
 _ZN9vpImageIo7readPNGER7vpImageIhESs@Base 2.6.2-1
 _ZN9vpImageIo7readPPMER7vpImageI6vpRGBaEPKc@Base 2.6.2-1
 _ZN9vpImageIo7readPPMER7vpImageI6vpRGBaESs@Base 2.6.2-1
 _ZN9vpImageIo7readPPMER7vpImageIhEPKc@Base 2.6.2-1
 _ZN9vpImageIo7readPPMER7vpImageIhESs@Base 2.6.2-1
 _ZN9vpImageIo8readJPEGER7vpImageI6vpRGBaEPKc@Base 2.6.2-1
 _ZN9vpImageIo8readJPEGER7vpImageI6vpRGBaESs@Base 2.6.2-1
 _ZN9vpImageIo8readJPEGER7vpImageIhEPKc@Base 2.6.2-1
 _ZN9vpImageIo8readJPEGER7vpImageIhESs@Base 2.6.2-1
 _ZN9vpImageIo8writePFMERK7vpImageIfEPKc@Base 2.6.2-1
 _ZN9vpImageIo8writePGMERK7vpImageI6vpRGBaEPKc@Base 2.6.2-1
 _ZN9vpImageIo8writePGMERK7vpImageI6vpRGBaESs@Base 2.6.2-1
 _ZN9vpImageIo8writePGMERK7vpImageIhEPKc@Base 2.6.2-1
 _ZN9vpImageIo8writePGMERK7vpImageIhESs@Base 2.6.2-1
 _ZN9vpImageIo8writePGMERK7vpImageIsEPKc@Base 2.6.2-1
 _ZN9vpImageIo8writePGMERK7vpImageIsESs@Base 2.6.2-1
 _ZN9vpImageIo8writePNGERK7vpImageI6vpRGBaEPKc@Base 2.6.2-1
 _ZN9vpImageIo8writePNGERK7vpImageI6vpRGBaESs@Base 2.6.2-1
 _ZN9vpImageIo8writePNGERK7vpImageIhEPKc@Base 2.6.2-1
 _ZN9vpImageIo8writePNGERK7vpImageIhESs@Base 2.6.2-1
 _ZN9vpImageIo8writePPMERK7vpImageI6vpRGBaEPKc@Base 2.6.2-1
 _ZN9vpImageIo8writePPMERK7vpImageI6vpRGBaESs@Base 2.6.2-1
 _ZN9vpImageIo8writePPMERK7vpImageIhEPKc@Base 2.6.2-1
 _ZN9vpImageIo8writePPMERK7vpImageIhESs@Base 2.6.2-1
 _ZN9vpImageIo9getFormatEPKc@Base 2.6.2-1
 _ZN9vpImageIo9vpMAX_LENE@Base 2.6.2-1
 _ZN9vpImageIo9writeJPEGERK7vpImageI6vpRGBaEPKc@Base 2.6.2-1
 _ZN9vpImageIo9writeJPEGERK7vpImageI6vpRGBaESs@Base 2.6.2-1
 _ZN9vpImageIo9writeJPEGERK7vpImageIhEPKc@Base 2.6.2-1
 _ZN9vpImageIo9writeJPEGERK7vpImageIhESs@Base 2.6.2-1
 _ZN9vpIoTools10configFileE@Base 2.6.2-1
 _ZN9vpIoTools10configVarsE@Base 2.6.2-1
 _ZN9vpIoTools11getUserNameERSs@Base 2.6.2-1
 _ZN9vpIoTools11getUserNameEv@Base 2.6.2-1
 _ZN9vpIoTools12configValuesE@Base 2.6.2-1
 _ZN9vpIoTools13checkFilenameEPKc@Base 2.6.2-1
 _ZN9vpIoTools13checkFilenameERKSs@Base 2.6.2-1
 _ZN9vpIoTools13makeDirectoryEPKc@Base 2.6.2-1
 _ZN9vpIoTools13makeDirectoryERKSs@Base 2.6.2-1
 _ZN9vpIoTools13readConfigVarERKSsR7vpColor@Base 2.6.2-1
 _ZN9vpIoTools13readConfigVarERKSsR8vpMatrixRKjS5_@Base 2.6.2-1
 _ZN9vpIoTools13readConfigVarERKSsRSs@Base 2.6.2-1
 _ZN9vpIoTools13readConfigVarERKSsRb@Base 2.6.2-1
 _ZN9vpIoTools13readConfigVarERKSsRd@Base 2.6.2-1
 _ZN9vpIoTools13readConfigVarERKSsRi@Base 2.6.2-1
 _ZN9vpIoTools13readConfigVarERKSsRj@Base 2.6.2-1
 _ZN9vpIoTools14addNameElementERKSsRKbS1_@Base 2.6.2-1
 _ZN9vpIoTools14addNameElementERKSsRKd@Base 2.6.2-1
 _ZN9vpIoTools14checkDirectoryEPKc@Base 2.6.2-1
 _ZN9vpIoTools14checkDirectoryERKSs@Base 2.6.2-1
 _ZN9vpIoTools14loadConfigFileERKSs@Base 2.6.2-1
 _ZN9vpIoTools14saveConfigFileERKb@Base 2.6.2-1
 _ZN9vpIoTools18createBaseNamePathERKb@Base 2.6.2-1
 _ZN9vpIoTools4copyEPKcS1_@Base 2.6.2-1
 _ZN9vpIoTools4copyERKSsS1_@Base 2.6.2-1
 _ZN9vpIoTools4pathEPKc@Base 2.6.2-1
 _ZN9vpIoTools4pathERKSs@Base 2.6.2-1
 _ZN9vpIoTools6getenvEPKc@Base 2.6.2-1
 _ZN9vpIoTools6getenvERSs@Base 2.6.2-1
 _ZN9vpIoTools6removeEPKc@Base 2.6.2-1
 _ZN9vpIoTools6removeERKSs@Base 2.6.2-1
 _ZN9vpIoTools6renameEPKcS1_@Base 2.6.2-1
 _ZN9vpIoTools6renameERKSsS1_@Base 2.6.2-1
 _ZN9vpIoTools7baseDirE@Base 2.6.2-1
 _ZN9vpIoTools8baseNameE@Base 2.6.2-1
 _ZN9vpMeNurbs11updateDeltaEv@Base 2.6.2-1
 _ZN9vpMeNurbs12initTrackingERK7vpImageIhE@Base 2.6.2-1
 _ZN9vpMeNurbs12initTrackingERK7vpImageIhER6vpListI12vpImagePointE@Base 2.6.2-1
 _ZN9vpMeNurbs12initTrackingERK7vpImageIhERKSt4listI12vpImagePointSaIS5_EE@Base 2.6.2-1
 _ZN9vpMeNurbs13localReSampleERK7vpImageIhE@Base 2.6.2-1
 _ZN9vpMeNurbs14suppressPointsEv@Base 2.6.2-1
 _ZN9vpMeNurbs15seekExtremitiesERK7vpImageIhE@Base 2.6.2-1
 _ZN9vpMeNurbs16farFromImageEdgeERK7vpImageIhERK12vpImagePoint@Base 2.6.2-1
 _ZN9vpMeNurbs17supressNearPointsEv@Base 2.6.2-1
 _ZN9vpMeNurbs20seekExtremitiesCannyERK7vpImageIhE@Base 2.6.2-1
 _ZN9vpMeNurbs24computeFreemanParametersEjR12vpImagePoint@Base 2.6.2-1
 _ZN9vpMeNurbs26computeFreemanChainElementERK7vpImageIhER12vpImagePointRj@Base 2.6.2-1
 _ZN9vpMeNurbs5trackERK7vpImageIhE@Base 2.6.2-1
 _ZN9vpMeNurbs6sampleERK7vpImageIhE@Base 2.6.2-1
 _ZN9vpMeNurbs7displayERK7vpImageIhE7vpColor@Base 2.6.2-1
 _ZN9vpMeNurbs7displayERK7vpImageIhER7vpNurbs7vpColor@Base 2.6.2-1
 _ZN9vpMeNurbs8reSampleERK7vpImageIhE@Base 2.6.2-1
 _ZN9vpMeNurbsC1ERKS_@Base 2.6.2-1
 _ZN9vpMeNurbsC1Ev@Base 2.6.2-1
 _ZN9vpMeNurbsC2ERKS_@Base 2.6.2-1
 _ZN9vpMeNurbsC2Ev@Base 2.6.2-1
 _ZN9vpMeNurbsD0Ev@Base 2.6.2-1
 _ZN9vpMeNurbsD1Ev@Base 2.6.2-1
 _ZN9vpMeNurbsD2Ev@Base 2.6.2-1
 _ZN9vpNetwork10vpReceptorD1Ev@Base 2.6.2-1
 _ZN9vpNetwork10vpReceptorD2Ev@Base 2.6.2-1
 _ZN9vpNetwork11sendRequestER9vpRequest@Base 2.6.2-1
 _ZN9vpNetwork13sendRequestToER9vpRequestRKi@Base 2.6.2-1
 _ZN9vpNetwork14receiveRequestEv@Base 2.6.2-1
 _ZN9vpNetwork15_handleRequestsEv@Base 2.6.2-1
 _ZN9vpNetwork15_receiveRequestEv@Base 2.6.2-1
 _ZN9vpNetwork16getReceptorIndexEPKc@Base 2.6.2-1
 _ZN9vpNetwork18addDecodingRequestEP9vpRequest@Base 2.6.2-1
 _ZN9vpNetwork18receiveRequestFromERKi@Base 2.6.2-1
 _ZN9vpNetwork18receiveRequestOnceEv@Base 2.6.2-1
 _ZN9vpNetwork19_handleFirstRequestEv@Base 2.6.2-1
 _ZN9vpNetwork19_receiveRequestFromERKi@Base 2.6.2-1
 _ZN9vpNetwork19_receiveRequestOnceEv@Base 2.6.2-1
 _ZN9vpNetwork20sendAndEncodeRequestER9vpRequest@Base 2.6.2-1
 _ZN9vpNetwork21removeDecodingRequestEPKc@Base 2.6.2-1
 _ZN9vpNetwork22receiveRequestOnceFromERKi@Base 2.6.2-1
 _ZN9vpNetwork22sendAndEncodeRequestToER9vpRequestRKi@Base 2.6.2-1
 _ZN9vpNetwork23_receiveRequestOnceFromERKi@Base 2.6.2-1
 _ZN9vpNetwork23receiveAndDecodeRequestEv@Base 2.6.2-1
 _ZN9vpNetwork27receiveAndDecodeRequestFromERKi@Base 2.6.2-1
 _ZN9vpNetwork27receiveAndDecodeRequestOnceEv@Base 2.6.2-1
 _ZN9vpNetwork31receiveAndDecodeRequestOnceFromERKi@Base 2.6.2-1
 _ZN9vpNetwork5printEPKc@Base 2.6.2-1
 _ZN9vpNetworkC1Ev@Base 2.6.2-1
 _ZN9vpNetworkC2Ev@Base 2.6.2-1
 _ZN9vpNetworkD0Ev@Base 2.6.2-1
 _ZN9vpNetworkD1Ev@Base 2.6.2-1
 _ZN9vpNetworkD2Ev@Base 2.6.2-1
 _ZN9vpPolygon10updateAreaEv@Base 2.6.2-1
 _ZN9vpPolygon12updateCenterEv@Base 2.6.2-1
 _ZN9vpPolygon17updateBoundingBoxEv@Base 2.6.2-1
 _ZN9vpPolygon24testIntersectionSegmentsERK12vpImagePointS2_S2_S2_@Base 2.6.2-1
 _ZN9vpPolygon4initERKSt6vectorI12vpImagePointSaIS1_EE@Base 2.6.2-1
 _ZN9vpPolygon7displayERK7vpImageIhERK7vpColorj@Base 2.6.2-1
 _ZN9vpPolygon8isInsideERK12vpImagePoint@Base 2.6.2-1
 _ZN9vpPolygon9buildFromERKSt6vectorI12vpImagePointSaIS1_EE@Base 2.6.2-1
 _ZN9vpPolygon9buildFromERKSt6vectorI7vpPointSaIS1_EERK18vpCameraParameters@Base 2.6.2-1
 _ZN9vpPolygon9initClickERK7vpImageIhE@Base 2.6.2-1
 _ZN9vpPolygonC1ERKS_@Base 2.6.2-1
 _ZN9vpPolygonC1ERKSt6vectorI12vpImagePointSaIS1_EE@Base 2.6.2-1
 _ZN9vpPolygonC1Ev@Base 2.6.2-1
 _ZN9vpPolygonC2ERKS_@Base 2.6.2-1
 _ZN9vpPolygonC2ERKSt6vectorI12vpImagePointSaIS1_EE@Base 2.6.2-1
 _ZN9vpPolygonC2Ev@Base 2.6.2-1
 _ZN9vpPolygonD0Ev@Base 2.6.2-1
 _ZN9vpPolygonD1Ev@Base 2.6.2-1
 _ZN9vpPolygonD2Ev@Base 2.6.2-1
 _ZN9vpPolygonaSERKS_@Base 2.6.2-1
 _ZN9vpRequest12addParameterEPc@Base 2.6.2-1
 _ZN9vpRequest12addParameterERSs@Base 2.6.2-1
 _ZN9vpRequest12addParameterERSt6vectorISsSaISsEE@Base 2.6.2-1
 _ZN9vpRequestC1Ev@Base 2.6.2-1
 _ZN9vpRequestC2Ev@Base 2.6.2-1
 _ZN9vpRequestD0Ev@Base 2.6.2-1
 _ZN9vpRequestD1Ev@Base 2.6.2-1
 _ZN9vpRequestD2Ev@Base 2.6.2-1
 _ZN9vpTracker4initEv@Base 2.6.2-1
 _ZN9vpTrackerC1ERKS_@Base 2.6.2-1
 _ZN9vpTrackerC1Ev@Base 2.6.2-1
 _ZN9vpTrackerC2ERKS_@Base 2.6.2-1
 _ZN9vpTrackerC2Ev@Base 2.6.2-1
 _ZN9vpTrackerD0Ev@Base 2.6.2-1
 _ZN9vpTrackerD1Ev@Base 2.6.2-1
 _ZN9vpTrackerD2Ev@Base 2.6.2-1
 _ZN9vpTrackeraSERKS_@Base 2.6.2-1
 _ZN9vpUniRand5draw1Ev@Base 2.6.2-1
 _ZNK10vpCylinder9duplicateEv@Base 2.6.2-1
 _ZNK11vpColVector1tEv@Base 2.6.2-1
 _ZNK11vpColVectormiERKS_@Base 2.6.2-1
 _ZNK11vpColVectormlERK11vpRowVector@Base 2.6.2-1
 _ZNK11vpColVectormlERKS_@Base 2.6.2-1
 _ZNK11vpColVectormlEd@Base 2.6.2-1
 _ZNK11vpColVectorplERKS_@Base 2.6.2-1
 _ZNK11vpException4whatEv@Base 2.6.2-1
 _ZNK11vpKltOpencv10getFeatureEiRiRfS1_@Base 2.6.2-1
 _ZNK11vpKltOpencv14getPrevFeatureEiRiRfS1_@Base 2.6.2-1
 _ZNK11vpMbTracker19getCameraParametersER18vpCameraParameters@Base 2.6.2-1
 _ZNK11vpMbTracker19getCovarianceMatrixEv@Base 2.6.2-1
 _ZNK11vpRowVector1tEv@Base 2.6.2-1
 _ZNK11vpRowVector9normalizeERS_@Base 2.6.2-1
 _ZNK11vpRowVectormlERK11vpColVector@Base 2.6.2-1
 _ZNK11vpRowVectormlERK8vpMatrix@Base 2.6.2-1
 _ZNK12vpHomography4saveERSt14basic_ofstreamIcSt11char_traitsIcEE@Base 2.6.2-1
 _ZNK12vpHomography7inverseERS_@Base 2.6.2-1
 _ZNK12vpHomography7inverseEv@Base 2.6.2-1
 _ZNK12vpHomographydvERKd@Base 2.6.2-1
 _ZNK12vpHomographymlERKS_@Base 2.6.2-1
 _ZNK12vpHomographymlERKd@Base 2.6.2-1
 _ZNK12vpImagePoint11inRectangleERK6vpRect@Base 2.6.2-1
 _ZNK12vpPoseVector4saveERSt14basic_ofstreamIcSt11char_traitsIcEE@Base 2.6.2-1
 _ZNK13vpFeatureLine5printEj@Base 2.6.2-1
 _ZNK13vpFeatureLine7displayERK18vpCameraParametersRK7vpImageI6vpRGBaERK7vpColorj@Base 2.6.2-1
 _ZNK13vpFeatureLine7displayERK18vpCameraParametersRK7vpImageIhERK7vpColorj@Base 2.6.2-1
 _ZNK13vpFeatureLine9duplicateEv@Base 2.6.2-1
 _ZNK13vpRobotCamera11getPositionER19vpHomogeneousMatrix@Base 2.6.2-1
 _ZNK13vpRobotCamera20getArticularPositionER11vpColVector@Base 2.6.2-1
 _ZNK14vpAdaptiveGain10limitValueEv@Base 2.6.2-1
 _ZNK14vpAdaptiveGain11value_constEd@Base 2.6.2-1
 _ZNK14vpAdaptiveGain16limitValue_constEv@Base 2.6.2-1
 _ZNK14vpAdaptiveGain5valueEd@Base 2.6.2-1
 _ZNK14vpAdaptiveGainclERK11vpColVector@Base 2.6.2-1
 _ZNK14vpAdaptiveGainclEd@Base 2.6.2-1
 _ZNK14vpAdaptiveGainclEv@Base 2.6.2-1
 _ZNK14vpBasicFeature12getDimensionEj@Base 2.6.2-1
 _ZNK14vpBasicFeature5get_sEj@Base 2.6.2-1
 _ZNK14vpBasicFeatureixEj@Base 2.6.2-1
 _ZNK14vpFeatureDepth17get_LogZoverZstarEv@Base 2.6.2-1
 _ZNK14vpFeatureDepth5get_ZEv@Base 2.6.2-1
 _ZNK14vpFeatureDepth5get_xEv@Base 2.6.2-1
 _ZNK14vpFeatureDepth5get_yEv@Base 2.6.2-1
 _ZNK14vpFeatureDepth5printEj@Base 2.6.2-1
 _ZNK14vpFeatureDepth7displayERK18vpCameraParametersRK7vpImageI6vpRGBaERK7vpColorj@Base 2.6.2-1
 _ZNK14vpFeatureDepth7displayERK18vpCameraParametersRK7vpImageIhERK7vpColorj@Base 2.6.2-1
 _ZNK14vpFeatureDepth9duplicateEv@Base 2.6.2-1
 _ZNK14vpFeaturePoint5get_ZEv@Base 2.6.2-1
 _ZNK14vpFeaturePoint5get_xEv@Base 2.6.2-1
 _ZNK14vpFeaturePoint5get_yEv@Base 2.6.2-1
 _ZNK14vpFeaturePoint5printEj@Base 2.6.2-1
 _ZNK14vpFeaturePoint7displayERK18vpCameraParametersRK7vpImageI6vpRGBaERK7vpColorj@Base 2.6.2-1
 _ZNK14vpFeaturePoint7displayERK18vpCameraParametersRK7vpImageIhERK7vpColorj@Base 2.6.2-1
 _ZNK14vpFeaturePoint9duplicateEv@Base 2.6.2-1
 _ZNK14vpMomentObject3getEjj@Base 2.6.2-1
 _ZNK14vpThetaUVector7extractERdR11vpColVector@Base 2.6.2-1
 _ZNK15vpFeatureMoment12getDimensionEj@Base 2.6.2-1
 _ZNK15vpFeatureMoment5printEj@Base 2.6.2-1
 _ZNK15vpFeatureMoment7displayERK18vpCameraParametersRK7vpImageI6vpRGBaERK7vpColorj@Base 2.6.2-1
 _ZNK15vpFeatureMoment7displayERK18vpCameraParametersRK7vpImageIhERK7vpColorj@Base 2.6.2-1
 _ZNK15vpFeatureMoment9duplicateEv@Base 2.6.2-1
 _ZNK15vpFeatureThetaU5printEj@Base 2.6.2-1
 _ZNK15vpFeatureThetaU7displayERK18vpCameraParametersRK7vpImageI6vpRGBaERK7vpColorj@Base 2.6.2-1
 _ZNK15vpFeatureThetaU7displayERK18vpCameraParametersRK7vpImageIhERK7vpColorj@Base 2.6.2-1
 _ZNK15vpFeatureThetaU7get_TUxEv@Base 2.6.2-1
 _ZNK15vpFeatureThetaU7get_TUyEv@Base 2.6.2-1
 _ZNK15vpFeatureThetaU7get_TUzEv@Base 2.6.2-1
 _ZNK15vpFeatureThetaU9duplicateEv@Base 2.6.2-1
 _ZNK15vpHistogramPeakeqERKS_@Base 2.6.2-1
 _ZNK16vpAdaptativeGain10limitValueEv@Base 2.6.2-1
 _ZNK16vpAdaptativeGain11value_constEd@Base 2.6.2-1
 _ZNK16vpAdaptativeGain16limitValue_constEv@Base 2.6.2-1
 _ZNK16vpAdaptativeGain5valueEd@Base 2.6.2-1
 _ZNK16vpAdaptativeGainclERK11vpColVector@Base 2.6.2-1
 _ZNK16vpAdaptativeGainclEd@Base 2.6.2-1
 _ZNK16vpAdaptativeGainclEv@Base 2.6.2-1
 _ZNK16vpFeatureEllipse5printEj@Base 2.6.2-1
 _ZNK16vpFeatureEllipse7displayERK18vpCameraParametersRK7vpImageI6vpRGBaERK7vpColorj@Base 2.6.2-1
 _ZNK16vpFeatureEllipse7displayERK18vpCameraParametersRK7vpImageIhERK7vpColorj@Base 2.6.2-1
 _ZNK16vpFeatureEllipse9duplicateEv@Base 2.6.2-1
 _ZNK16vpFeaturePoint3D5get_XEv@Base 2.6.2-1
 _ZNK16vpFeaturePoint3D5get_YEv@Base 2.6.2-1
 _ZNK16vpFeaturePoint3D5get_ZEv@Base 2.6.2-1
 _ZNK16vpFeaturePoint3D5printEj@Base 2.6.2-1
 _ZNK16vpFeaturePoint3D7displayERK18vpCameraParametersRK7vpImageI6vpRGBaERK7vpColorj@Base 2.6.2-1
 _ZNK16vpFeaturePoint3D7displayERK18vpCameraParametersRK7vpImageIhERK7vpColorj@Base 2.6.2-1
 _ZNK16vpFeaturePoint3D9duplicateEv@Base 2.6.2-1
 _ZNK16vpFeatureSegment5printEj@Base 2.6.2-1
 _ZNK16vpFeatureSegment7displayERK18vpCameraParametersRK7vpImageI6vpRGBaERK7vpColorj@Base 2.6.2-1
 _ZNK16vpFeatureSegment7displayERK18vpCameraParametersRK7vpImageIhERK7vpColorj@Base 2.6.2-1
 _ZNK16vpFeatureSegment9duplicateEv@Base 2.6.2-1
 _ZNK16vpGenericFeature5get_sER11vpColVector@Base 2.6.2-1
 _ZNK16vpGenericFeature5get_sERd@Base 2.6.2-1
 _ZNK16vpGenericFeature5get_sERdS0_@Base 2.6.2-1
 _ZNK16vpGenericFeature5get_sERdS0_S0_@Base 2.6.2-1
 _ZNK16vpGenericFeature5printEj@Base 2.6.2-1
 _ZNK16vpGenericFeature7displayERK18vpCameraParametersRK7vpImageI6vpRGBaERK7vpColorj@Base 2.6.2-1
 _ZNK16vpGenericFeature7displayERK18vpCameraParametersRK7vpImageIhERK7vpColorj@Base 2.6.2-1
 _ZNK16vpGenericFeature9duplicateEv@Base 2.6.2-1
 _ZNK16vpHistogramValeyeqERKS_@Base 2.6.2-1
 _ZNK16vpRotationMatrix17isARotationMatrixEv@Base 2.6.2-1
 _ZNK16vpRotationMatrix1tEv@Base 2.6.2-1
 _ZNK16vpRotationMatrix7inverseERS_@Base 2.6.2-1
 _ZNK16vpRotationMatrix7inverseEv@Base 2.6.2-1
 _ZNK16vpRotationMatrixmiERKS_@Base 2.6.2-1
 _ZNK16vpRotationMatrixmlERK11vpColVector@Base 2.6.2-1
 _ZNK16vpRotationMatrixmlERK19vpTranslationVector@Base 2.6.2-1
 _ZNK16vpRotationMatrixmlERK8vpMatrix@Base 2.6.2-1
 _ZNK16vpRotationMatrixmlERKS_@Base 2.6.2-1
 _ZNK16vpRotationMatrixplERKS_@Base 2.6.2-1
 _ZNK16vpRotationVector1tEv@Base 2.6.2-1
 _ZNK16vpRotationVector4sizeEv@Base 2.6.2-1
 _ZNK18vpCameraParameters5get_KEv@Base 2.6.2-1
 _ZNK18vpFeatureLuminance5get_ZEv@Base 2.6.2-1
 _ZNK18vpFeatureLuminance5printEj@Base 2.6.2-1
 _ZNK18vpFeatureLuminance7displayERK18vpCameraParametersRK7vpImageI6vpRGBaERK7vpColorj@Base 2.6.2-1
 _ZNK18vpFeatureLuminance7displayERK18vpCameraParametersRK7vpImageIhERK7vpColorj@Base 2.6.2-1
 _ZNK18vpFeatureLuminance9duplicateEv@Base 2.6.2-1
 _ZNK18vpForceTwistMatrixmlERK11vpColVector@Base 2.6.2-1
 _ZNK18vpForceTwistMatrixmlERK8vpMatrix@Base 2.6.2-1
 _ZNK18vpForceTwistMatrixmlERKS_@Base 2.6.2-1
 _ZNK19vpFeaturePointPolar5get_ZEv@Base 2.6.2-1
 _ZNK19vpFeaturePointPolar5printEj@Base 2.6.2-1
 _ZNK19vpFeaturePointPolar7displayERK18vpCameraParametersRK7vpImageI6vpRGBaERK7vpColorj@Base 2.6.2-1
 _ZNK19vpFeaturePointPolar7displayERK18vpCameraParametersRK7vpImageIhERK7vpColorj@Base 2.6.2-1
 _ZNK19vpFeaturePointPolar7get_rhoEv@Base 2.6.2-1
 _ZNK19vpFeaturePointPolar9duplicateEv@Base 2.6.2-1
 _ZNK19vpFeaturePointPolar9get_thetaEv@Base 2.6.2-1
 _ZNK19vpForwardProjection5printEv@Base 2.6.2-1
 _ZNK19vpHomogeneousMatrix21isAnHomogeneousMatrixEv@Base 2.6.2-1
 _ZNK19vpHomogeneousMatrix4saveERSt14basic_ofstreamIcSt11char_traitsIcEE@Base 2.6.2-1
 _ZNK19vpHomogeneousMatrix7extractER14vpThetaUVector@Base 2.6.2-1
 _ZNK19vpHomogeneousMatrix7extractER16vpRotationMatrix@Base 2.6.2-1
 _ZNK19vpHomogeneousMatrix7extractER18vpQuaternionVector@Base 2.6.2-1
 _ZNK19vpHomogeneousMatrix7extractER19vpTranslationVector@Base 2.6.2-1
 _ZNK19vpHomogeneousMatrix7inverseERS_@Base 2.6.2-1
 _ZNK19vpHomogeneousMatrix7inverseEv@Base 2.6.2-1
 _ZNK19vpHomogeneousMatrixmlER11vpColVector@Base 2.6.2-1
 _ZNK19vpHomogeneousMatrixmlERKS_@Base 2.6.2-1
 _ZNK19vpTranslationVector4skewEv@Base 2.6.2-1
 _ZNK19vpTranslationVectormiERKS_@Base 2.6.2-1
 _ZNK19vpTranslationVectormlEd@Base 2.6.2-1
 _ZNK19vpTranslationVectorngEv@Base 2.6.2-1
 _ZNK19vpTranslationVectorplERKS_@Base 2.6.2-1
 _ZNK20vpFeatureTranslation5printEj@Base 2.6.2-1
 _ZNK20vpFeatureTranslation6get_TxEv@Base 2.6.2-1
 _ZNK20vpFeatureTranslation6get_TyEv@Base 2.6.2-1
 _ZNK20vpFeatureTranslation6get_TzEv@Base 2.6.2-1
 _ZNK20vpFeatureTranslation7displayERK18vpCameraParametersRK7vpImageI6vpRGBaERK7vpColorj@Base 2.6.2-1
 _ZNK20vpFeatureTranslation7displayERK18vpCameraParametersRK7vpImageIhERK7vpColorj@Base 2.6.2-1
 _ZNK20vpFeatureTranslation9duplicateEv@Base 2.6.2-1
 _ZNK21vpVelocityTwistMatrix7extractER16vpRotationMatrix@Base 2.6.2-1
 _ZNK21vpVelocityTwistMatrix7extractER19vpTranslationVector@Base 2.6.2-1
 _ZNK21vpVelocityTwistMatrix7inverseERS_@Base 2.6.2-1
 _ZNK21vpVelocityTwistMatrix7inverseEv@Base 2.6.2-1
 _ZNK21vpVelocityTwistMatrixmlERK11vpColVector@Base 2.6.2-1
 _ZNK21vpVelocityTwistMatrixmlERK8vpMatrix@Base 2.6.2-1
 _ZNK21vpVelocityTwistMatrixmlERKS_@Base 2.6.2-1
 _ZNK22vpPlanarObjectDetector18getDetectedCornersEv@Base 2.6.2-1
 _ZNK23vpFeatureVanishingPoint5get_xEv@Base 2.6.2-1
 _ZNK23vpFeatureVanishingPoint5get_yEv@Base 2.6.2-1
 _ZNK23vpFeatureVanishingPoint5printEj@Base 2.6.2-1
 _ZNK23vpFeatureVanishingPoint7displayERK18vpCameraParametersRK7vpImageI6vpRGBaERK7vpColorj@Base 2.6.2-1
 _ZNK23vpFeatureVanishingPoint7displayERK18vpCameraParametersRK7vpImageIhERK7vpColorj@Base 2.6.2-1
 _ZNK23vpFeatureVanishingPoint9duplicateEv@Base 2.6.2-1
 _ZNK5boost10lock_error4whatEv@Base 2.6.2-1
 _ZNK5boost16exception_detail10clone_implINS0_19error_info_injectorINS_10lock_errorEEEE5cloneEv@Base 2.6.2-1
 _ZNK5boost16exception_detail10clone_implINS0_19error_info_injectorINS_10lock_errorEEEE7rethrowEv@Base 2.6.2-1
 _ZNK6vpDot210getSurfaceEv@Base 2.6.2-1
 _ZNK6vpDot211getDistanceERKS_@Base 2.6.2-1
 _ZNK6vpDot212hasGoodLevelERK7vpImageIhERKjS5_@Base 2.6.2-1
 _ZNK6vpDot215hasReverseLevelERK7vpImageIhERKjS5_@Base 2.6.2-1
 _ZNK6vpDot216getSizePrecisionEv@Base 2.6.2-1
 _ZNK6vpDot221getGrayLevelPrecisionEv@Base 2.6.2-1
 _ZNK6vpDot226getEllipsoidShapePrecisionEv@Base 2.6.2-1
 _ZNK6vpDot233getMaxSizeSearchDistancePrecisionEv@Base 2.6.2-1
 _ZNK6vpDot28getWidthEv@Base 2.6.2-1
 _ZNK6vpDot28isInAreaERKjS1_@Base 2.6.2-1
 _ZNK6vpDot29getHeightEv@Base 2.6.2-1
 _ZNK6vpDot29isInImageERK7vpImageIhE@Base 2.6.2-1
 _ZNK6vpDot29isInImageERK7vpImageIhERK12vpImagePoint@Base 2.6.2-1
 _ZNK6vpLine9duplicateEv@Base 2.6.2-1
 _ZNK6vpRGBagtERKS_@Base 2.6.2-1
 _ZNK6vpRGBaltERKS_@Base 2.6.2-1
 _ZNK6vpRGBamiERK11vpColVector@Base 2.6.2-1
 _ZNK6vpRGBamiERKS_@Base 2.6.2-1
 _ZNK6vpRGBamlERKd@Base 2.6.2-1
 _ZNK6vpRGBamlERKf@Base 2.6.2-1
 _ZNK6vpRGBaplERK11vpColVector@Base 2.6.2-1
 _ZNK6vpRGBaplERKS_@Base 2.6.2-1
 _ZNK7vpPlane15getIntersectionERK11vpColVectorRS0_@Base 2.6.2-1
 _ZNK7vpPlane15rayIntersectionERK7vpPointS2_R11vpColVector@Base 2.6.2-1
 _ZNK7vpPlane21projectionPointOnPlanERK7vpPointRS0_@Base 2.6.2-1
 _ZNK7vpPlane9getNormalER11vpColVector@Base 2.6.2-1
 _ZNK7vpPlane9getNormalEv@Base 2.6.2-1
 _ZNK7vpPoint9duplicateEv@Base 2.6.2-1
 _ZNK7vpRobot22getMaxRotationVelocityEv@Base 2.6.2-1
 _ZNK7vpRobot25getMaxTranslationVelocityEv@Base 2.6.2-1
 _ZNK8vpAROgre11getPositionERKSs@Base 2.6.2-1
 _ZNK8vpCircle9duplicateEv@Base 2.6.2-1
 _ZNK8vpMatrix10solveBySVDERK11vpColVector@Base 2.6.2-1
 _ZNK8vpMatrix10solveBySVDERK11vpColVectorRS0_@Base 2.6.2-1
 _ZNK8vpMatrix11getMaxValueEv@Base 2.6.2-1
 _ZNK8vpMatrix11getMinValueEv@Base 2.6.2-1
 _ZNK8vpMatrix11inverseByLUEv@Base 2.6.2-1
 _ZNK8vpMatrix12infinityNormEv@Base 2.6.2-1
 _ZNK8vpMatrix13euclideanNormEv@Base 2.6.2-1
 _ZNK8vpMatrix13pseudoInverseERS_R11vpColVectord@Base 2.6.2-1
 _ZNK8vpMatrix13pseudoInverseERS_R11vpColVectordS0_S0_@Base 2.6.2-1
 _ZNK8vpMatrix13pseudoInverseERS_R11vpColVectordS0_S0_S0_@Base 2.6.2-1
 _ZNK8vpMatrix13pseudoInverseERS_d@Base 2.6.2-1
 _ZNK8vpMatrix13pseudoInverseEd@Base 2.6.2-1
 _ZNK8vpMatrix1tEv@Base 2.6.2-1
 _ZNK8vpMatrix3AAtERS_@Base 2.6.2-1
 _ZNK8vpMatrix3AAtEv@Base 2.6.2-1
 _ZNK8vpMatrix3AtAERS_@Base 2.6.2-1
 _ZNK8vpMatrix3AtAEv@Base 2.6.2-1
 _ZNK8vpMatrix3detENS_11vpDetMethodE@Base 2.6.2-1
 _ZNK8vpMatrix7detByLUEv@Base 2.6.2-1
 _ZNK8vpMatrix9sumSquareEv@Base 2.6.2-1
 _ZNK8vpMatrix9transposeERS_@Base 2.6.2-1
 _ZNK8vpMatrix9transposeEv@Base 2.6.2-1
 _ZNK8vpMatrixdvEd@Base 2.6.2-1
 _ZNK8vpMatrixmiERKS_@Base 2.6.2-1
 _ZNK8vpMatrixmlERK11vpColVector@Base 2.6.2-1
 _ZNK8vpMatrixmlERK19vpTranslationVector@Base 2.6.2-1
 _ZNK8vpMatrixmlERKS_@Base 2.6.2-1
 _ZNK8vpMatrixmlEd@Base 2.6.2-1
 _ZNK8vpMatrixngEv@Base 2.6.2-1
 _ZNK8vpMatrixplERKS_@Base 2.6.2-1
 _ZNK8vpMeLine6getRhoEv@Base 2.6.2-1
 _ZNK8vpMeLine8getThetaEv@Base 2.6.2-1
 _ZNK8vpSphere9duplicateEv@Base 2.6.2-1
 _ZNK9vpMeNurbs12hasGoodLevelERK7vpImageIhERK12vpImagePoint@Base 2.6.2-1
 _ZNK9vpMeNurbs9isInImageERK7vpImageIhERK12vpImagePoint@Base 2.6.2-1
 _ZNSt10_List_baseI12vpImagePointSaIS0_EE8_M_clearEv@Base 2.6.2-1
 _ZNSt10_List_baseI15vpHistogramPeakSaIS0_EE8_M_clearEv@Base 2.6.2-1
 _ZNSt10_List_baseI16vpImageSimulatorSaIS0_EE8_M_clearEv@Base 2.6.2-1
 _ZNSt10_List_baseI19vpHomogeneousMatrixSaIS0_EE8_M_clearEv@Base 2.6.2-1
 _ZNSt10_List_baseI7vpPointSaIS0_EE8_M_clearEv@Base 2.6.2-1
 _ZNSt10_List_baseI8vpMeSiteSaIS0_EE8_M_clearEv@Base 2.6.2-1
 _ZNSt10_List_baseIP17vpMbtDistanceLineSaIS1_EE8_M_clearEv@Base 2.6.2-1
 _ZNSt10_List_baseIP21vpMbtDistanceCylinderSaIS1_EE8_M_clearEv@Base 2.6.2-1
 _ZNSt10_List_baseISsSaISsEE8_M_clearEv@Base 2.6.2-1
 _ZNSt10_List_baseIdSaIdEE8_M_clearEv@Base 2.6.2-1
 _ZNSt10_List_baseIiSaIiEE8_M_clearEv@Base 2.6.2-1
 _ZNSt10_List_baseIjSaIjEE8_M_clearEv@Base 2.6.2-1
 _ZNSt12_Destroy_auxILb0EE9__destroyIPN14vpPoseFeatures5vpDuoI13vpFeatureLine6vpLineEEEEvT_S8_@Base 2.6.2-1
 _ZNSt12_Destroy_auxILb0EE9__destroyIPN14vpPoseFeatures5vpDuoI14vpFeaturePoint7vpPointEEEEvT_S8_@Base 2.6.2-1
 _ZNSt12_Destroy_auxILb0EE9__destroyIPN14vpPoseFeatures5vpDuoI16vpFeaturePoint3D7vpPointEEEEvT_S8_@Base 2.6.2-1
 _ZNSt12_Destroy_auxILb0EE9__destroyIPN14vpPoseFeatures5vpDuoI23vpFeatureVanishingPoint7vpPointEEEEvT_S8_@Base 2.6.2-1
 _ZNSt12_Destroy_auxILb0EE9__destroyIPN14vpPoseFeatures6vpTrioI16vpFeatureSegment7vpPointS5_EEEEvT_S8_@Base 2.6.2-1
 _ZNSt12_Destroy_auxILb0EE9__destroyIPN14vpPoseFeatures6vpTrioI23vpFeatureVanishingPoint6vpLineS5_EEEEvT_S8_@Base 2.6.2-1
 _ZNSt12_Destroy_auxILb0EE9__destroyIPN9vpNetwork10vpReceptorEEEvT_S5_@Base 2.6.2-1
 _ZNSt12_Destroy_auxILb0EE9__destroyIPSsEEvT_S3_@Base 2.6.2-1
 _ZNSt12_Destroy_auxILb0EE9__destroyIPSt4listIP17vpMbtDistanceLineSaIS4_EEEEvT_S8_@Base 2.6.2-1
 _ZNSt12_Destroy_auxILb0EE9__destroyIPSt4listIP21vpMbtDistanceCylinderSaIS4_EEEEvT_S8_@Base 2.6.2-1
 _ZNSt12_Vector_baseI7vpPointSaIS0_EED1Ev@Base 2.6.2-1
 _ZNSt12_Vector_baseI7vpPointSaIS0_EED2Ev@Base 2.6.2-1
 _ZNSt12_Vector_baseI8vpMatrixSaIS0_EED1Ev@Base 2.6.2-1
 _ZNSt12_Vector_baseI8vpMatrixSaIS0_EED2Ev@Base 2.6.2-1
 _ZNSt12_Vector_baseIN2cv3MatESaIS1_EED1Ev@Base 2.6.2-1
 _ZNSt12_Vector_baseIN2cv3MatESaIS1_EED2Ev@Base 2.6.2-1
 _ZNSt15basic_stringbufIcSt11char_traitsIcESaIcEED0Ev@Base 2.6.2-1
 _ZNSt15basic_stringbufIcSt11char_traitsIcESaIcEED1Ev@Base 2.6.2-1
 _ZNSt15basic_stringbufIcSt11char_traitsIcESaIcEED2Ev@Base 2.6.2-1
 _ZNSt3mapISsiSt4lessISsESaISt4pairIKSsiEEEixERS3_@Base 2.6.2-1
 _ZNSt4listI12vpImagePointSaIS0_EED1Ev@Base 2.6.2-1
 _ZNSt4listI12vpImagePointSaIS0_EED2Ev@Base 2.6.2-1
 _ZNSt4listI15vpHistogramPeakSaIS0_EE4sortIPFbS0_S0_EEEvT_@Base 2.6.2-1
 _ZNSt4listI16vpImageSimulatorSaIS0_EEaSERKS2_@Base 2.6.2-1
 _ZNSt4listI8vpMeSiteSaIS0_EE4sortIPFbRKS0_S5_EEEvT_@Base 2.6.2-1
 _ZNSt4listI8vpMeSiteSaIS0_EEaSERKS2_@Base 2.6.2-1
 _ZNSt4listIdSaIdEED1Ev@Base 2.6.2-1
 _ZNSt4listIdSaIdEED2Ev@Base 2.6.2-1
 _ZNSt4pairIKSsSsEC1ERKS1_@Base 2.6.2-1
 _ZNSt4pairIKSsSsEC2ERKS1_@Base 2.6.2-1
 _ZNSt4pairIKSsSsED1Ev@Base 2.6.2-1
 _ZNSt4pairIKSsSsED2Ev@Base 2.6.2-1
 _ZNSt4pairISsSsED1Ev@Base 2.6.2-1
 _ZNSt4pairISsSsED2Ev@Base 2.6.2-1
 _ZNSt6vectorI11vpScanPointSaIS0_EE13_M_insert_auxEN9__gnu_cxx17__normal_iteratorIPS0_S2_EERKS0_@Base 2.6.2-1
 _ZNSt6vectorI12vpImagePointSaIS0_EE13_M_insert_auxEN9__gnu_cxx17__normal_iteratorIPS0_S2_EERKS0_@Base 2.6.2-1
 _ZNSt6vectorI12vpImagePointSaIS0_EE14_M_fill_insertEN9__gnu_cxx17__normal_iteratorIPS0_S2_EEmRKS0_@Base 2.6.2-1
 _ZNSt6vectorI12vpImagePointSaIS0_EED1Ev@Base 2.6.2-1
 _ZNSt6vectorI12vpImagePointSaIS0_EED2Ev@Base 2.6.2-1
 _ZNSt6vectorI12vpImagePointSaIS0_EEaSERKS2_@Base 2.6.2-1
 _ZNSt6vectorI7vpPointSaIS0_EE13_M_insert_auxEN9__gnu_cxx17__normal_iteratorIPS0_S2_EERKS0_@Base 2.6.2-1
 _ZNSt6vectorI7vpPointSaIS0_EE14_M_fill_insertEN9__gnu_cxx17__normal_iteratorIPS0_S2_EEmRKS0_@Base 2.6.2-1
 _ZNSt6vectorI7vpPointSaIS0_EED1Ev@Base 2.6.2-1
 _ZNSt6vectorI7vpPointSaIS0_EED2Ev@Base 2.6.2-1
 _ZNSt6vectorI7vpPointSaIS0_EEaSERKS2_@Base 2.6.2-1
 _ZNSt6vectorI8vpMatrixSaIS0_EE14_M_fill_insertEN9__gnu_cxx17__normal_iteratorIPS0_S2_EEmRKS0_@Base 2.6.2-1
 _ZNSt6vectorI8vpMatrixSaIS0_EED1Ev@Base 2.6.2-1
 _ZNSt6vectorI8vpMatrixSaIS0_EED2Ev@Base 2.6.2-1
 _ZNSt6vectorI8vpMatrixSaIS0_EEaSERKS2_@Base 2.6.2-1
 _ZNSt6vectorIN14vpPoseFeatures5vpDuoI13vpFeatureLine6vpLineEESaIS4_EE13_M_insert_auxEN9__gnu_cxx17__normal_iteratorIPS4_S6_EERKS4_@Base 2.6.2-1
 _ZNSt6vectorIN14vpPoseFeatures5vpDuoI13vpFeatureLine6vpLineEESaIS4_EED1Ev@Base 2.6.2-1
 _ZNSt6vectorIN14vpPoseFeatures5vpDuoI13vpFeatureLine6vpLineEESaIS4_EED2Ev@Base 2.6.2-1
 _ZNSt6vectorIN14vpPoseFeatures5vpDuoI14vpFeaturePoint7vpPointEESaIS4_EE13_M_insert_auxEN9__gnu_cxx17__normal_iteratorIPS4_S6_EERKS4_@Base 2.6.2-1
 _ZNSt6vectorIN14vpPoseFeatures5vpDuoI14vpFeaturePoint7vpPointEESaIS4_EED1Ev@Base 2.6.2-1
 _ZNSt6vectorIN14vpPoseFeatures5vpDuoI14vpFeaturePoint7vpPointEESaIS4_EED2Ev@Base 2.6.2-1
 _ZNSt6vectorIN14vpPoseFeatures5vpDuoI16vpFeatureEllipse8vpCircleEESaIS4_EE13_M_insert_auxEN9__gnu_cxx17__normal_iteratorIPS4_S6_EERKS4_@Base 2.6.2-1
 _ZNSt6vectorIN14vpPoseFeatures5vpDuoI16vpFeatureEllipse8vpSphereEESaIS4_EE13_M_insert_auxEN9__gnu_cxx17__normal_iteratorIPS4_S6_EERKS4_@Base 2.6.2-1
 _ZNSt6vectorIN14vpPoseFeatures5vpDuoI16vpFeaturePoint3D7vpPointEESaIS4_EE13_M_insert_auxEN9__gnu_cxx17__normal_iteratorIPS4_S6_EERKS4_@Base 2.6.2-1
 _ZNSt6vectorIN14vpPoseFeatures5vpDuoI16vpFeaturePoint3D7vpPointEESaIS4_EED1Ev@Base 2.6.2-1
 _ZNSt6vectorIN14vpPoseFeatures5vpDuoI16vpFeaturePoint3D7vpPointEESaIS4_EED2Ev@Base 2.6.2-1
 _ZNSt6vectorIN14vpPoseFeatures5vpDuoI23vpFeatureVanishingPoint7vpPointEESaIS4_EE13_M_insert_auxEN9__gnu_cxx17__normal_iteratorIPS4_S6_EERKS4_@Base 2.6.2-1
 _ZNSt6vectorIN14vpPoseFeatures5vpDuoI23vpFeatureVanishingPoint7vpPointEESaIS4_EED1Ev@Base 2.6.2-1
 _ZNSt6vectorIN14vpPoseFeatures5vpDuoI23vpFeatureVanishingPoint7vpPointEESaIS4_EED2Ev@Base 2.6.2-1
 _ZNSt6vectorIN14vpPoseFeatures6vpTrioI13vpFeatureLine10vpCylinderiEESaIS4_EE13_M_insert_auxEN9__gnu_cxx17__normal_iteratorIPS4_S6_EERKS4_@Base 2.6.2-1
 _ZNSt6vectorIN14vpPoseFeatures6vpTrioI16vpFeatureSegment7vpPointS3_EESaIS4_EE13_M_insert_auxEN9__gnu_cxx17__normal_iteratorIPS4_S6_EERKS4_@Base 2.6.2-1
 _ZNSt6vectorIN14vpPoseFeatures6vpTrioI23vpFeatureVanishingPoint6vpLineS3_EESaIS4_EE13_M_insert_auxEN9__gnu_cxx17__normal_iteratorIPS4_S6_EERKS4_@Base 2.6.2-1
 _ZNSt6vectorIN2cv3MatESaIS1_EED1Ev@Base 2.6.2-1
 _ZNSt6vectorIN2cv3MatESaIS1_EED2Ev@Base 2.6.2-1
 _ZNSt6vectorIN2cv6Point_IfEESaIS2_EE13_M_insert_auxEN9__gnu_cxx17__normal_iteratorIPS2_S4_EERKS2_@Base 2.6.2-1
 _ZNSt6vectorIN2cv6Point_IfEESaIS2_EE14_M_fill_insertEN9__gnu_cxx17__normal_iteratorIPS2_S4_EEmRKS2_@Base 2.6.2-1
 _ZNSt6vectorIN2cv6Point_IfEESaIS2_EED1Ev@Base 2.6.2-1
 _ZNSt6vectorIN2cv6Point_IfEESaIS2_EED2Ev@Base 2.6.2-1
 _ZNSt6vectorIN2cv8KeyPointESaIS1_EED1Ev@Base 2.6.2-1
 _ZNSt6vectorIN2cv8KeyPointESaIS1_EED2Ev@Base 2.6.2-1
 _ZNSt6vectorIN9vpNetwork10vpReceptorESaIS1_EE13_M_insert_auxEN9__gnu_cxx17__normal_iteratorIPS1_S3_EERKS1_@Base 2.6.2-1
 _ZNSt6vectorIN9vpNetwork10vpReceptorESaIS1_EE5eraseEN9__gnu_cxx17__normal_iteratorIPS1_S3_EE@Base 2.6.2-1
 _ZNSt6vectorIP15vpFeatureMomentSaIS1_EE13_M_insert_auxEN9__gnu_cxx17__normal_iteratorIPS1_S3_EERKS1_@Base 2.6.2-1
 _ZNSt6vectorIP9vpRequestSaIS1_EE13_M_insert_auxEN9__gnu_cxx17__normal_iteratorIPS1_S3_EERKS1_@Base 2.6.2-1
 _ZNSt6vectorIPK7vpImageIhESaIS3_EE14_M_fill_insertEN9__gnu_cxx17__normal_iteratorIPS3_S5_EEmRKS3_@Base 2.6.2-1
 _ZNSt6vectorIPK7vpImageIhESaIS3_EED1Ev@Base 2.6.2-1
 _ZNSt6vectorIPK7vpImageIhESaIS3_EED2Ev@Base 2.6.2-1
 _ZNSt6vectorISsSaISsEE13_M_insert_auxEN9__gnu_cxx17__normal_iteratorIPSsS1_EERKSs@Base 2.6.2-1
 _ZNSt6vectorISsSaISsEED1Ev@Base 2.6.2-1
 _ZNSt6vectorISsSaISsEED2Ev@Base 2.6.2-1
 _ZNSt6vectorISt20_List_const_iteratorIdESaIS1_EED1Ev@Base 2.6.2-1
 _ZNSt6vectorISt20_List_const_iteratorIdESaIS1_EED2Ev@Base 2.6.2-1
 _ZNSt6vectorISt4listIP17vpMbtDistanceLineSaIS2_EESaIS4_EE14_M_fill_insertEN9__gnu_cxx17__normal_iteratorIPS4_S6_EEmRKS4_@Base 2.6.2-1
 _ZNSt6vectorISt4listIP17vpMbtDistanceLineSaIS2_EESaIS4_EED1Ev@Base 2.6.2-1
 _ZNSt6vectorISt4listIP17vpMbtDistanceLineSaIS2_EESaIS4_EED2Ev@Base 2.6.2-1
 _ZNSt6vectorISt4listIP21vpMbtDistanceCylinderSaIS2_EESaIS4_EE14_M_fill_insertEN9__gnu_cxx17__normal_iteratorIPS4_S6_EEmRKS4_@Base 2.6.2-1
 _ZNSt6vectorISt4listIP21vpMbtDistanceCylinderSaIS2_EESaIS4_EED1Ev@Base 2.6.2-1
 _ZNSt6vectorISt4listIP21vpMbtDistanceCylinderSaIS2_EESaIS4_EED2Ev@Base 2.6.2-1
 _ZNSt6vectorIbSaIbEE13_M_insert_auxESt13_Bit_iteratorb@Base 2.6.2-1
 _ZNSt6vectorIbSaIbEE14_M_fill_insertESt13_Bit_iteratormb@Base 2.6.2-1
 _ZNSt6vectorIbSaIbEED1Ev@Base 2.6.2-1
 _ZNSt6vectorIbSaIbEED2Ev@Base 2.6.2-1
 _ZNSt6vectorIdSaIdEE13_M_insert_auxEN9__gnu_cxx17__normal_iteratorIPdS1_EERKd@Base 2.6.2-1
 _ZNSt6vectorIdSaIdEE14_M_fill_assignEmRKd@Base 2.6.2-1
 _ZNSt6vectorIdSaIdEE14_M_fill_insertEN9__gnu_cxx17__normal_iteratorIPdS1_EEmRKd@Base 2.6.2-1
 _ZNSt6vectorIdSaIdEED1Ev@Base 2.6.2-1
 _ZNSt6vectorIdSaIdEED2Ev@Base 2.6.2-1
 _ZNSt6vectorIdSaIdEEaSERKS1_@Base 2.6.2-1
 _ZNSt6vectorIfSaIfEED1Ev@Base 2.6.2-1
 _ZNSt6vectorIfSaIfEED2Ev@Base 2.6.2-1
 _ZNSt6vectorIiSaIiEE13_M_insert_auxEN9__gnu_cxx17__normal_iteratorIPiS1_EERKi@Base 2.6.2-1
 _ZNSt6vectorIiSaIiEED1Ev@Base 2.6.2-1
 _ZNSt6vectorIiSaIiEED2Ev@Base 2.6.2-1
 _ZNSt6vectorIjSaIjEE13_M_insert_auxEN9__gnu_cxx17__normal_iteratorIPjS1_EERKj@Base 2.6.2-1
 _ZNSt6vectorIjSaIjEE14_M_fill_insertEN9__gnu_cxx17__normal_iteratorIPjS1_EEmRKj@Base 2.6.2-1
 _ZNSt6vectorIjSaIjEED1Ev@Base 2.6.2-1
 _ZNSt6vectorIjSaIjEED2Ev@Base 2.6.2-1
 _ZNSt6vectorIjSaIjEEaSERKS1_@Base 2.6.2-1
 _ZNSt6vectorIlSaIlEE13_M_insert_auxEN9__gnu_cxx17__normal_iteratorIPlS1_EERKl@Base 2.6.2-1
 _ZNSt6vectorIlSaIlEED1Ev@Base 2.6.2-1
 _ZNSt6vectorIlSaIlEED2Ev@Base 2.6.2-1
 _ZNSt8_Rb_treeIPKcSt4pairIKS1_P15vpFeatureMomentESt10_Select1stIS6_EN23vpFeatureMomentDatabase7cmp_strESaIS6_EE16_M_insert_uniqueERKS6_@Base 2.6.2-1
 _ZNSt8_Rb_treeIPKcSt4pairIKS1_P15vpFeatureMomentESt10_Select1stIS6_EN23vpFeatureMomentDatabase7cmp_strESaIS6_EE8_M_eraseEPSt13_Rb_tree_nodeIS6_E@Base 2.6.2-1
 _ZNSt8_Rb_treeIPKcSt4pairIKS1_P8vpMomentESt10_Select1stIS6_EN16vpMomentDatabase7cmp_strESaIS6_EE16_M_insert_uniqueERKS6_@Base 2.6.2-1
 _ZNSt8_Rb_treeIPKcSt4pairIKS1_P8vpMomentESt10_Select1stIS6_EN16vpMomentDatabase7cmp_strESaIS6_EE8_M_eraseEPSt13_Rb_tree_nodeIS6_E@Base 2.6.2-1
 _ZNSt8_Rb_treeISsSt4pairIKSsSsESt10_Select1stIS2_ESt4lessISsESaIS2_EE10_M_insert_EPKSt18_Rb_tree_node_baseSB_RKS2_@Base 2.6.2-1
 _ZNSt8_Rb_treeISsSt4pairIKSsSsESt10_Select1stIS2_ESt4lessISsESaIS2_EE15_M_insert_equalERKS2_@Base 2.6.2-1
 _ZNSt8_Rb_treeISsSt4pairIKSsSsESt10_Select1stIS2_ESt4lessISsESaIS2_EE8_M_eraseEPSt13_Rb_tree_nodeIS2_E@Base 2.6.2-1
 _ZNSt8_Rb_treeISsSt4pairIKSsiESt10_Select1stIS2_ESt4lessISsESaIS2_EE10_M_insert_EPKSt18_Rb_tree_node_baseSB_RKS2_@Base 2.6.2-1
 _ZNSt8_Rb_treeISsSt4pairIKSsiESt10_Select1stIS2_ESt4lessISsESaIS2_EE16_M_insert_uniqueERKS2_@Base 2.6.2-1
 _ZNSt8_Rb_treeISsSt4pairIKSsiESt10_Select1stIS2_ESt4lessISsESaIS2_EE17_M_insert_unique_ESt23_Rb_tree_const_iteratorIS2_ERKS2_@Base 2.6.2-1
 _ZNSt8_Rb_treeISsSt4pairIKSsiESt10_Select1stIS2_ESt4lessISsESaIS2_EE7_M_copyEPKSt13_Rb_tree_nodeIS2_EPSA_@Base 2.6.2-1
 _ZNSt8_Rb_treeISsSt4pairIKSsiESt10_Select1stIS2_ESt4lessISsESaIS2_EE8_M_eraseEPSt13_Rb_tree_nodeIS2_E@Base 2.6.2-1
 _ZNSt8_Rb_treeIddSt9_IdentityIdESt4lessIdESaIdEE8_M_eraseEPSt13_Rb_tree_nodeIdE@Base 2.6.2-1
 _ZNSt8multimapISsSsSt4lessISsESaISt4pairIKSsSsEEED1Ev@Base 2.6.2-1
 _ZNSt8multimapISsSsSt4lessISsESaISt4pairIKSsSsEEED2Ev@Base 2.6.2-1
 _ZStplIcSt11char_traitsIcESaIcEESbIT_T0_T1_EPKS3_RKS6_@Base 2.6.2-1
 _ZStplIcSt11char_traitsIcESaIcEESbIT_T0_T1_ERKS6_PKS3_@Base 2.6.2-1
 _ZTI10vpCylinder@Base 2.6.2-1
 _ZTI10vpDisplayX@Base 2.6.2-1
 _ZTI10vpTriangle@Base 2.6.2-1
 _ZTI10vpViper850@Base 2.6.2-1
 _ZTI11vpColVector@Base 2.6.2-1
 _ZTI11vpException@Base 2.6.2-1
 _ZTI11vpHistogram@Base 2.6.2-1
 _ZTI11vpKltOpencv@Base 2.6.2-1
 _ZTI11vpMbTracker@Base 2.6.2-1
 _ZTI11vpMbtMeLine@Base 2.6.2-1
 _ZTI11vpMeEllipse@Base 2.6.2-1
 _ZTI11vpMeTracker@Base 2.6.2-1
 _ZTI11vpRowVector@Base 2.6.2-1
 _ZTI11vpScanPoint@Base 2.6.2-1
 _ZTI11vpSickLDMRS@Base 2.6.2-1
 _ZTI11vpSubMatrix@Base 2.6.2-1
 _ZTI11vpXmlParser@Base 2.6.2-1
 _ZTI12vpDisplayGTK@Base 2.6.2-1
 _ZTI12vpHomography@Base 2.6.2-1
 _ZTI12vpImagePoint@Base 2.6.2-1
 _ZTI12vpMomentArea@Base 2.6.2-1
 _ZTI12vpPoseVector@Base 2.6.2-1
 _ZTI13vpCalibration@Base 2.6.2-1
 _ZTI13vpDiskGrabber@Base 2.6.2-1
 _ZTI13vpFeatureLine@Base 2.6.2-1
 _ZTI13vpIoException@Base 2.6.2-1
 _ZTI13vpMomentAlpha@Base 2.6.2-1
 _ZTI13vpMomentBasic@Base 2.6.2-1
 _ZTI13vpRobotCamera@Base 2.6.2-1
 _ZTI13vpV4l2Grabber@Base 2.6.2-1
 _ZTI13vpVideoReader@Base 2.6.2-1
 _ZTI14vpBasicFeature@Base 2.6.2-1
 _ZTI14vpFeatureDepth@Base 2.6.2-1
 _ZTI14vpFeaturePoint@Base 2.6.2-1
 _ZTI14vpFrameGrabber@Base 2.6.2-1
 _ZTI14vpKeyPointSurf@Base 2.6.2-1
 _ZTI14vpLaserScanner@Base 2.6.2-1
 _ZTI14vpMbtXmlParser@Base 2.6.2-1
 _ZTI14vpMomentCommon@Base 2.6.2-1
 _ZTI14vpPoseFeatures@Base 2.6.2-1
 _ZTI14vpSubColVector@Base 2.6.2-1
 _ZTI14vpSubRowVector@Base 2.6.2-1
 _ZTI15vpBasicKeyPoint@Base 2.6.2-1
 _ZTI15vpDisplayOpenCV@Base 2.6.2-1
 _ZTI15vpFeatureMoment@Base 2.6.2-1
 _ZTI15vpFeatureThetaU@Base 2.6.2-1
 _ZTI15vpMbEdgeTracker@Base 2.6.2-1
 _ZTI15vpOpenCVGrabber@Base 2.6.2-1
 _ZTI15vpPoseException@Base 2.6.2-1
 _ZTI15vpRobotTemplate@Base 2.6.2-1
 _ZTI16vp1394TwoGrabber@Base 2.6.2-1
 _ZTI16vpFeatureEllipse@Base 2.6.2-1
 _ZTI16vpFeaturePoint3D@Base 2.6.2-1
 _ZTI16vpFeatureSegment@Base 2.6.2-1
 _ZTI16vpFernClassifier@Base 2.6.2-1
 _ZTI16vpGenericFeature@Base 2.6.2-1
 _ZTI16vpImageException@Base 2.6.2-1
 _ZTI16vpImageSimulator@Base 2.6.2-1
 _ZTI16vpMomentCentered@Base 2.6.2-1
 _ZTI16vpMomentDatabase@Base 2.6.2-1
 _ZTI16vpRobotException@Base 2.6.2-1
 _ZTI16vpRobotSimulator@Base 2.6.2-1
 _ZTI16vpRotationMatrix@Base 2.6.2-1
 _ZTI16vpServoException@Base 2.6.2-1
 _ZTI16vpSimulatorAfma6@Base 2.6.2-1
 _ZTI17vpMatrixException@Base 2.6.2-1
 _ZTI17vpXmlParserCamera@Base 2.6.2-1
 _ZTI18vpCameraParameters@Base 2.6.2-1
 _ZTI18vpDisplayException@Base 2.6.2-1
 _ZTI18vpFeatureException@Base 2.6.2-1
 _ZTI18vpFeatureLuminance@Base 2.6.2-1
 _ZTI18vpForceTwistMatrix@Base 2.6.2-1
 _ZTI18vpMomentCInvariant@Base 2.6.2-1
 _ZTI19vpFeatureMomentArea@Base 2.6.2-1
 _ZTI19vpFeaturePointPolar@Base 2.6.2-1
 _ZTI19vpForwardProjection@Base 2.6.2-1
 _ZTI19vpHomogeneousMatrix@Base 2.6.2-1
 _ZTI19vpSimulatorViper850@Base 2.6.2-1
 _ZTI19vpTrackingException@Base 2.6.2-1
 _ZTI19vpTranslationVector@Base 2.6.2-1
 _ZTI20vpFeatureMomentAlpha@Base 2.6.2-1
 _ZTI20vpFeatureMomentBasic@Base 2.6.2-1
 _ZTI20vpFeatureTranslation@Base 2.6.2-1
 _ZTI20vpWireFrameSimulator@Base 2.6.2-1
 _ZTI21vpFeatureMomentCommon@Base 2.6.2-1
 _ZTI21vpMomentGravityCenter@Base 2.6.2-1
 _ZTI21vpVelocityTwistMatrix@Base 2.6.2-1
 _ZTI22vpCalibrationException@Base 2.6.2-1
 _ZTI22vpMomentAreaNormalized@Base 2.6.2-1
 _ZTI22vpMomentGenericFeature@Base 2.6.2-1
 _ZTI22vpPlanarObjectDetector@Base 2.6.2-1
 _ZTI23vpFeatureMomentCentered@Base 2.6.2-1
 _ZTI23vpFeatureMomentDatabase@Base 2.6.2-1
 _ZTI23vpFeatureVanishingPoint@Base 2.6.2-1
 _ZTI23vpFrameGrabberException@Base 2.6.2-1
 _ZTI23vpParallelPortException@Base 2.6.2-1
 _ZTI25vpFeatureMomentCInvariant@Base 2.6.2-1
 _ZTI28vpFeatureMomentGravityCenter@Base 2.6.2-1
 _ZTI29vpFeatureMomentAreaNormalized@Base 2.6.2-1
 _ZTI31vpMomentGravityCenterNormalized@Base 2.6.2-1
 _ZTI38vpFeatureMomentGravityCenterNormalized@Base 2.6.2-1
 _ZTI4vpMe@Base 2.6.2-1
 _ZTI5vpDot@Base 2.6.2-1
 _ZTI6vpDot2@Base 2.6.2-1
 _ZTI6vpLine@Base 2.6.2-1
 _ZTI6vpListI15vpHistogramPeakE@Base 2.6.2-1
 _ZTI6vpListI6vpDot2E@Base 2.6.2-1
 _ZTI6vpListIP14vpBasicFeatureE@Base 2.6.2-1
 _ZTI6vpListIP17vpMbtDistanceLineE@Base 2.6.2-1
 _ZTI6vpListIP21vpMbtDistanceCylinderE@Base 2.6.2-1
 _ZTI6vpListIPiE@Base 2.6.2-1
 _ZTI6vpListIjE@Base 2.6.2-1
 _ZTI6vpPose@Base 2.6.2-1
 _ZTI7vpAfma6@Base 2.6.2-1
 _ZTI7vpImageI6vpRGBaE@Base 2.6.2-1
 _ZTI7vpImageIhE@Base 2.6.2-1
 _ZTI7vpNurbs@Base 2.6.2-1
 _ZTI7vpPoint@Base 2.6.2-1
 _ZTI7vpRobot@Base 2.6.2-1
 _ZTI7vpScale@Base 2.6.2-1
 _ZTI7vpServo@Base 2.6.2-1
 _ZTI7vpViper@Base 2.6.2-1
 _ZTI8vpAROgre@Base 2.6.2-1
 _ZTI8vpCircle@Base 2.6.2-1
 _ZTI8vpClient@Base 2.6.2-1
 _ZTI8vpMatrix@Base 2.6.2-1
 _ZTI8vpMeLine@Base 2.6.2-1
 _ZTI8vpMeSite@Base 2.6.2-1
 _ZTI8vpMoment@Base 2.6.2-1
 _ZTI8vpRobust@Base 2.6.2-1
 _ZTI8vpServer@Base 2.6.2-1
 _ZTI8vpSphere@Base 2.6.2-1
 _ZTI9vpBSpline@Base 2.6.2-1
 _ZTI9vpDisplay@Base 2.6.2-1
 _ZTI9vpMeNurbs@Base 2.6.2-1
 _ZTI9vpNetwork@Base 2.6.2-1
 _ZTI9vpPolygon@Base 2.6.2-1
 _ZTI9vpRequest@Base 2.6.2-1
 _ZTI9vpTracker@Base 2.6.2-1
 _ZTIN17vpMatrixException13errorCodeEnumE@Base 2.6.2-1
 _ZTIN3OIS11KeyListenerE@Base 2.6.2-1
 _ZTIN4Ogre10TexturePtrE@Base 2.6.2-1
 _ZTIN4Ogre11MaterialPtrE@Base 2.6.2-1
 _ZTIN4Ogre13FrameListenerE@Base 2.6.2-1
 _ZTIN4Ogre19WindowEventListenerE@Base 2.6.2-1
 _ZTIN4Ogre28HardwarePixelBufferSharedPtrE@Base 2.6.2-1
 _ZTIN4Ogre9SharedPtrINS_19HardwarePixelBufferEEE@Base 2.6.2-1
 _ZTIN4Ogre9SharedPtrINS_7TextureEEE@Base 2.6.2-1
 _ZTIN4Ogre9SharedPtrINS_8MaterialEEE@Base 2.6.2-1
 _ZTIN4Ogre9SharedPtrINS_8ResourceEEE@Base 2.6.2-1
 _ZTIN5boost10lock_errorE@Base 2.6.2-1
 _ZTIN5boost16exception_detail10clone_baseE@Base 2.6.2-1
 _ZTIN5boost16exception_detail10clone_implINS0_19error_info_injectorINS_10lock_errorEEEEE@Base 2.6.2-1
 _ZTIN5boost16exception_detail19error_info_injectorINS_10lock_errorEEE@Base 2.6.2-1
 _ZTIN5boost16thread_exceptionE@Base 2.6.2-1
 _ZTIN5boost9exceptionE@Base 2.6.2-1
 _ZTS10vpCylinder@Base 2.6.2-1
 _ZTS10vpDisplayX@Base 2.6.2-1
 _ZTS10vpTriangle@Base 2.6.2-1
 _ZTS10vpViper850@Base 2.6.2-1
 _ZTS11vpColVector@Base 2.6.2-1
 _ZTS11vpException@Base 2.6.2-1
 _ZTS11vpHistogram@Base 2.6.2-1
 _ZTS11vpKltOpencv@Base 2.6.2-1
 _ZTS11vpMbTracker@Base 2.6.2-1
 _ZTS11vpMbtMeLine@Base 2.6.2-1
 _ZTS11vpMeEllipse@Base 2.6.2-1
 _ZTS11vpMeTracker@Base 2.6.2-1
 _ZTS11vpRowVector@Base 2.6.2-1
 _ZTS11vpScanPoint@Base 2.6.2-1
 _ZTS11vpSickLDMRS@Base 2.6.2-1
 _ZTS11vpSubMatrix@Base 2.6.2-1
 _ZTS11vpXmlParser@Base 2.6.2-1
 _ZTS12vpDisplayGTK@Base 2.6.2-1
 _ZTS12vpHomography@Base 2.6.2-1
 _ZTS12vpImagePoint@Base 2.6.2-1
 _ZTS12vpMomentArea@Base 2.6.2-1
 _ZTS12vpPoseVector@Base 2.6.2-1
 _ZTS13vpCalibration@Base 2.6.2-1
 _ZTS13vpDiskGrabber@Base 2.6.2-1
 _ZTS13vpFeatureLine@Base 2.6.2-1
 _ZTS13vpIoException@Base 2.6.2-1
 _ZTS13vpMomentAlpha@Base 2.6.2-1
 _ZTS13vpMomentBasic@Base 2.6.2-1
 _ZTS13vpRobotCamera@Base 2.6.2-1
 _ZTS13vpV4l2Grabber@Base 2.6.2-1
 _ZTS13vpVideoReader@Base 2.6.2-1
 _ZTS14vpBasicFeature@Base 2.6.2-1
 _ZTS14vpFeatureDepth@Base 2.6.2-1
 _ZTS14vpFeaturePoint@Base 2.6.2-1
 _ZTS14vpFrameGrabber@Base 2.6.2-1
 _ZTS14vpKeyPointSurf@Base 2.6.2-1
 _ZTS14vpLaserScanner@Base 2.6.2-1
 _ZTS14vpMbtXmlParser@Base 2.6.2-1
 _ZTS14vpMomentCommon@Base 2.6.2-1
 _ZTS14vpPoseFeatures@Base 2.6.2-1
 _ZTS14vpSubColVector@Base 2.6.2-1
 _ZTS14vpSubRowVector@Base 2.6.2-1
 _ZTS15vpBasicKeyPoint@Base 2.6.2-1
 _ZTS15vpDisplayOpenCV@Base 2.6.2-1
 _ZTS15vpFeatureMoment@Base 2.6.2-1
 _ZTS15vpFeatureThetaU@Base 2.6.2-1
 _ZTS15vpMbEdgeTracker@Base 2.6.2-1
 _ZTS15vpOpenCVGrabber@Base 2.6.2-1
 _ZTS15vpPoseException@Base 2.6.2-1
 _ZTS15vpRobotTemplate@Base 2.6.2-1
 _ZTS16vp1394TwoGrabber@Base 2.6.2-1
 _ZTS16vpFeatureEllipse@Base 2.6.2-1
 _ZTS16vpFeaturePoint3D@Base 2.6.2-1
 _ZTS16vpFeatureSegment@Base 2.6.2-1
 _ZTS16vpFernClassifier@Base 2.6.2-1
 _ZTS16vpGenericFeature@Base 2.6.2-1
 _ZTS16vpImageException@Base 2.6.2-1
 _ZTS16vpImageSimulator@Base 2.6.2-1
 _ZTS16vpMomentCentered@Base 2.6.2-1
 _ZTS16vpMomentDatabase@Base 2.6.2-1
 _ZTS16vpRobotException@Base 2.6.2-1
 _ZTS16vpRobotSimulator@Base 2.6.2-1
 _ZTS16vpRotationMatrix@Base 2.6.2-1
 _ZTS16vpServoException@Base 2.6.2-1
 _ZTS16vpSimulatorAfma6@Base 2.6.2-1
 _ZTS17vpMatrixException@Base 2.6.2-1
 _ZTS17vpXmlParserCamera@Base 2.6.2-1
 _ZTS18vpCameraParameters@Base 2.6.2-1
 _ZTS18vpDisplayException@Base 2.6.2-1
 _ZTS18vpFeatureException@Base 2.6.2-1
 _ZTS18vpFeatureLuminance@Base 2.6.2-1
 _ZTS18vpForceTwistMatrix@Base 2.6.2-1
 _ZTS18vpMomentCInvariant@Base 2.6.2-1
 _ZTS19vpFeatureMomentArea@Base 2.6.2-1
 _ZTS19vpFeaturePointPolar@Base 2.6.2-1
 _ZTS19vpForwardProjection@Base 2.6.2-1
 _ZTS19vpHomogeneousMatrix@Base 2.6.2-1
 _ZTS19vpSimulatorViper850@Base 2.6.2-1
 _ZTS19vpTrackingException@Base 2.6.2-1
 _ZTS19vpTranslationVector@Base 2.6.2-1
 _ZTS20vpFeatureMomentAlpha@Base 2.6.2-1
 _ZTS20vpFeatureMomentBasic@Base 2.6.2-1
 _ZTS20vpFeatureTranslation@Base 2.6.2-1
 _ZTS20vpWireFrameSimulator@Base 2.6.2-1
 _ZTS21vpFeatureMomentCommon@Base 2.6.2-1
 _ZTS21vpMomentGravityCenter@Base 2.6.2-1
 _ZTS21vpVelocityTwistMatrix@Base 2.6.2-1
 _ZTS22vpCalibrationException@Base 2.6.2-1
 _ZTS22vpMomentAreaNormalized@Base 2.6.2-1
 _ZTS22vpMomentGenericFeature@Base 2.6.2-1
 _ZTS22vpPlanarObjectDetector@Base 2.6.2-1
 _ZTS23vpFeatureMomentCentered@Base 2.6.2-1
 _ZTS23vpFeatureMomentDatabase@Base 2.6.2-1
 _ZTS23vpFeatureVanishingPoint@Base 2.6.2-1
 _ZTS23vpFrameGrabberException@Base 2.6.2-1
 _ZTS23vpParallelPortException@Base 2.6.2-1
 _ZTS25vpFeatureMomentCInvariant@Base 2.6.2-1
 _ZTS28vpFeatureMomentGravityCenter@Base 2.6.2-1
 _ZTS29vpFeatureMomentAreaNormalized@Base 2.6.2-1
 _ZTS31vpMomentGravityCenterNormalized@Base 2.6.2-1
 _ZTS38vpFeatureMomentGravityCenterNormalized@Base 2.6.2-1
 _ZTS4vpMe@Base 2.6.2-1
 _ZTS5vpDot@Base 2.6.2-1
 _ZTS6vpDot2@Base 2.6.2-1
 _ZTS6vpLine@Base 2.6.2-1
 _ZTS6vpListI15vpHistogramPeakE@Base 2.6.2-1
 _ZTS6vpListI6vpDot2E@Base 2.6.2-1
 _ZTS6vpListIP14vpBasicFeatureE@Base 2.6.2-1
 _ZTS6vpListIP17vpMbtDistanceLineE@Base 2.6.2-1
 _ZTS6vpListIP21vpMbtDistanceCylinderE@Base 2.6.2-1
 _ZTS6vpListIPiE@Base 2.6.2-1
 _ZTS6vpListIjE@Base 2.6.2-1
 _ZTS6vpPose@Base 2.6.2-1
 _ZTS7vpAfma6@Base 2.6.2-1
 _ZTS7vpImageI6vpRGBaE@Base 2.6.2-1
 _ZTS7vpImageIhE@Base 2.6.2-1
 _ZTS7vpNurbs@Base 2.6.2-1
 _ZTS7vpPoint@Base 2.6.2-1
 _ZTS7vpRobot@Base 2.6.2-1
 _ZTS7vpScale@Base 2.6.2-1
 _ZTS7vpServo@Base 2.6.2-1
 _ZTS7vpViper@Base 2.6.2-1
 _ZTS8vpAROgre@Base 2.6.2-1
 _ZTS8vpCircle@Base 2.6.2-1
 _ZTS8vpClient@Base 2.6.2-1
 _ZTS8vpMatrix@Base 2.6.2-1
 _ZTS8vpMeLine@Base 2.6.2-1
 _ZTS8vpMeSite@Base 2.6.2-1
 _ZTS8vpMoment@Base 2.6.2-1
 _ZTS8vpRobust@Base 2.6.2-1
 _ZTS8vpServer@Base 2.6.2-1
 _ZTS8vpSphere@Base 2.6.2-1
 _ZTS9vpBSpline@Base 2.6.2-1
 _ZTS9vpDisplay@Base 2.6.2-1
 _ZTS9vpMeNurbs@Base 2.6.2-1
 _ZTS9vpNetwork@Base 2.6.2-1
 _ZTS9vpPolygon@Base 2.6.2-1
 _ZTS9vpRequest@Base 2.6.2-1
 _ZTS9vpTracker@Base 2.6.2-1
 _ZTSN17vpMatrixException13errorCodeEnumE@Base 2.6.2-1
 _ZTSN3OIS11KeyListenerE@Base 2.6.2-1
 _ZTSN4Ogre10TexturePtrE@Base 2.6.2-1
 _ZTSN4Ogre11MaterialPtrE@Base 2.6.2-1
 _ZTSN4Ogre13FrameListenerE@Base 2.6.2-1
 _ZTSN4Ogre19WindowEventListenerE@Base 2.6.2-1
 _ZTSN4Ogre28HardwarePixelBufferSharedPtrE@Base 2.6.2-1
 _ZTSN4Ogre9SharedPtrINS_19HardwarePixelBufferEEE@Base 2.6.2-1
 _ZTSN4Ogre9SharedPtrINS_7TextureEEE@Base 2.6.2-1
 _ZTSN4Ogre9SharedPtrINS_8MaterialEEE@Base 2.6.2-1
 _ZTSN4Ogre9SharedPtrINS_8ResourceEEE@Base 2.6.2-1
 _ZTSN5boost10lock_errorE@Base 2.6.2-1
 _ZTSN5boost16exception_detail10clone_baseE@Base 2.6.2-1
 _ZTSN5boost16exception_detail10clone_implINS0_19error_info_injectorINS_10lock_errorEEEEE@Base 2.6.2-1
 _ZTSN5boost16exception_detail19error_info_injectorINS_10lock_errorEEE@Base 2.6.2-1
 _ZTSN5boost16thread_exceptionE@Base 2.6.2-1
 _ZTSN5boost9exceptionE@Base 2.6.2-1
 _ZTV10vpCylinder@Base 2.6.2-1
 _ZTV10vpDisplayX@Base 2.6.2-1
 _ZTV10vpTriangle@Base 2.6.2-1
 _ZTV10vpViper850@Base 2.6.2-1
 _ZTV11vpColVector@Base 2.6.2-1
 _ZTV11vpException@Base 2.6.2-1
 _ZTV11vpHistogram@Base 2.6.2-1
 _ZTV11vpKltOpencv@Base 2.6.2-1
 _ZTV11vpMbTracker@Base 2.6.2-1
 _ZTV11vpMbtMeLine@Base 2.6.2-1
 _ZTV11vpMeEllipse@Base 2.6.2-1
 _ZTV11vpMeTracker@Base 2.6.2-1
 _ZTV11vpRowVector@Base 2.6.2-1
 _ZTV11vpScanPoint@Base 2.6.2-1
 _ZTV11vpSickLDMRS@Base 2.6.2-1
 _ZTV11vpSubMatrix@Base 2.6.2-1
 _ZTV11vpXmlParser@Base 2.6.2-1
 _ZTV12vpDisplayGTK@Base 2.6.2-1
 _ZTV12vpHomography@Base 2.6.2-1
 _ZTV12vpImagePoint@Base 2.6.2-1
 _ZTV12vpMomentArea@Base 2.6.2-1
 _ZTV12vpPoseVector@Base 2.6.2-1
 _ZTV13vpCalibration@Base 2.6.2-1
 _ZTV13vpDiskGrabber@Base 2.6.2-1
 _ZTV13vpFeatureLine@Base 2.6.2-1
 _ZTV13vpIoException@Base 2.6.2-1
 _ZTV13vpMomentAlpha@Base 2.6.2-1
 _ZTV13vpMomentBasic@Base 2.6.2-1
 _ZTV13vpRobotCamera@Base 2.6.2-1
 _ZTV13vpV4l2Grabber@Base 2.6.2-1
 _ZTV13vpVideoReader@Base 2.6.2-1
 _ZTV14vpBasicFeature@Base 2.6.2-1
 _ZTV14vpFeatureDepth@Base 2.6.2-1
 _ZTV14vpFeaturePoint@Base 2.6.2-1
 _ZTV14vpFrameGrabber@Base 2.6.2-1
 _ZTV14vpKeyPointSurf@Base 2.6.2-1
 _ZTV14vpLaserScanner@Base 2.6.2-1
 _ZTV14vpMbtXmlParser@Base 2.6.2-1
 _ZTV14vpMomentCommon@Base 2.6.2-1
 _ZTV14vpPoseFeatures@Base 2.6.2-1
 _ZTV14vpSubColVector@Base 2.6.2-1
 _ZTV14vpSubRowVector@Base 2.6.2-1
 _ZTV15vpBasicKeyPoint@Base 2.6.2-1
 _ZTV15vpDisplayOpenCV@Base 2.6.2-1
 _ZTV15vpFeatureMoment@Base 2.6.2-1
 _ZTV15vpFeatureThetaU@Base 2.6.2-1
 _ZTV15vpMbEdgeTracker@Base 2.6.2-1
 _ZTV15vpOpenCVGrabber@Base 2.6.2-1
 _ZTV15vpPoseException@Base 2.6.2-1
 _ZTV15vpRobotTemplate@Base 2.6.2-1
 _ZTV16vp1394TwoGrabber@Base 2.6.2-1
 _ZTV16vpFeatureEllipse@Base 2.6.2-1
 _ZTV16vpFeaturePoint3D@Base 2.6.2-1
 _ZTV16vpFeatureSegment@Base 2.6.2-1
 _ZTV16vpFernClassifier@Base 2.6.2-1
 _ZTV16vpGenericFeature@Base 2.6.2-1
 _ZTV16vpImageException@Base 2.6.2-1
 _ZTV16vpImageSimulator@Base 2.6.2-1
 _ZTV16vpMomentCentered@Base 2.6.2-1
 _ZTV16vpMomentDatabase@Base 2.6.2-1
 _ZTV16vpRobotException@Base 2.6.2-1
 _ZTV16vpRobotSimulator@Base 2.6.2-1
 _ZTV16vpRotationMatrix@Base 2.6.2-1
 _ZTV16vpServoException@Base 2.6.2-1
 _ZTV16vpSimulatorAfma6@Base 2.6.2-1
 _ZTV17vpMatrixException@Base 2.6.2-1
 _ZTV17vpXmlParserCamera@Base 2.6.2-1
 _ZTV18vpCameraParameters@Base 2.6.2-1
 _ZTV18vpDisplayException@Base 2.6.2-1
 _ZTV18vpFeatureException@Base 2.6.2-1
 _ZTV18vpFeatureLuminance@Base 2.6.2-1
 _ZTV18vpForceTwistMatrix@Base 2.6.2-1
 _ZTV18vpMomentCInvariant@Base 2.6.2-1
 _ZTV19vpFeatureMomentArea@Base 2.6.2-1
 _ZTV19vpFeaturePointPolar@Base 2.6.2-1
 _ZTV19vpForwardProjection@Base 2.6.2-1
 _ZTV19vpHomogeneousMatrix@Base 2.6.2-1
 _ZTV19vpSimulatorViper850@Base 2.6.2-1
 _ZTV19vpTrackingException@Base 2.6.2-1
 _ZTV19vpTranslationVector@Base 2.6.2-1
 _ZTV20vpFeatureMomentAlpha@Base 2.6.2-1
 _ZTV20vpFeatureMomentBasic@Base 2.6.2-1
 _ZTV20vpFeatureTranslation@Base 2.6.2-1
 _ZTV20vpWireFrameSimulator@Base 2.6.2-1
 _ZTV21vpFeatureMomentCommon@Base 2.6.2-1
 _ZTV21vpMomentGravityCenter@Base 2.6.2-1
 _ZTV21vpVelocityTwistMatrix@Base 2.6.2-1
 _ZTV22vpCalibrationException@Base 2.6.2-1
 _ZTV22vpMomentAreaNormalized@Base 2.6.2-1
 _ZTV22vpMomentGenericFeature@Base 2.6.2-1
 _ZTV22vpPlanarObjectDetector@Base 2.6.2-1
 _ZTV23vpFeatureMomentCentered@Base 2.6.2-1
 _ZTV23vpFeatureMomentDatabase@Base 2.6.2-1
 _ZTV23vpFeatureVanishingPoint@Base 2.6.2-1
 _ZTV23vpFrameGrabberException@Base 2.6.2-1
 _ZTV23vpParallelPortException@Base 2.6.2-1
 _ZTV25vpFeatureMomentCInvariant@Base 2.6.2-1
 _ZTV28vpFeatureMomentGravityCenter@Base 2.6.2-1
 _ZTV29vpFeatureMomentAreaNormalized@Base 2.6.2-1
 _ZTV31vpMomentGravityCenterNormalized@Base 2.6.2-1
 _ZTV38vpFeatureMomentGravityCenterNormalized@Base 2.6.2-1
 _ZTV4vpMe@Base 2.6.2-1
 _ZTV5vpDot@Base 2.6.2-1
 _ZTV6vpDot2@Base 2.6.2-1
 _ZTV6vpLine@Base 2.6.2-1
 _ZTV6vpListI15vpHistogramPeakE@Base 2.6.2-1
 _ZTV6vpListI6vpDot2E@Base 2.6.2-1
 _ZTV6vpListIP14vpBasicFeatureE@Base 2.6.2-1
 _ZTV6vpListIP17vpMbtDistanceLineE@Base 2.6.2-1
 _ZTV6vpListIP21vpMbtDistanceCylinderE@Base 2.6.2-1
 _ZTV6vpListIPiE@Base 2.6.2-1
 _ZTV6vpListIjE@Base 2.6.2-1
 _ZTV6vpPose@Base 2.6.2-1
 _ZTV7vpImageI6vpRGBaE@Base 2.6.2-1
 _ZTV7vpImageIhE@Base 2.6.2-1
 _ZTV7vpNurbs@Base 2.6.2-1
 _ZTV7vpPoint@Base 2.6.2-1
 _ZTV7vpRobot@Base 2.6.2-1
 _ZTV7vpScale@Base 2.6.2-1
 _ZTV7vpServo@Base 2.6.2-1
 _ZTV7vpViper@Base 2.6.2-1
 _ZTV8vpAROgre@Base 2.6.2-1
 _ZTV8vpCircle@Base 2.6.2-1
 _ZTV8vpClient@Base 2.6.2-1
 _ZTV8vpMatrix@Base 2.6.2-1
 _ZTV8vpMeLine@Base 2.6.2-1
 _ZTV8vpMeSite@Base 2.6.2-1
 _ZTV8vpMoment@Base 2.6.2-1
 _ZTV8vpRobust@Base 2.6.2-1
 _ZTV8vpServer@Base 2.6.2-1
 _ZTV8vpSphere@Base 2.6.2-1
 _ZTV9vpBSpline@Base 2.6.2-1
 _ZTV9vpDisplay@Base 2.6.2-1
 _ZTV9vpMeNurbs@Base 2.6.2-1
 _ZTV9vpNetwork@Base 2.6.2-1
 _ZTV9vpPolygon@Base 2.6.2-1
 _ZTV9vpRequest@Base 2.6.2-1
 _ZTV9vpTracker@Base 2.6.2-1
 _ZTVN3OIS11KeyListenerE@Base 2.6.2-1
 _ZTVN4Ogre10TexturePtrE@Base 2.6.2-1
 _ZTVN4Ogre11MaterialPtrE@Base 2.6.2-1
 _ZTVN4Ogre13FrameListenerE@Base 2.6.2-1
 _ZTVN4Ogre19WindowEventListenerE@Base 2.6.2-1
 _ZTVN4Ogre28HardwarePixelBufferSharedPtrE@Base 2.6.2-1
 _ZTVN4Ogre9SharedPtrINS_19HardwarePixelBufferEEE@Base 2.6.2-1
 _ZTVN4Ogre9SharedPtrINS_7TextureEEE@Base 2.6.2-1
 _ZTVN4Ogre9SharedPtrINS_8MaterialEEE@Base 2.6.2-1
 _ZTVN4Ogre9SharedPtrINS_8ResourceEEE@Base 2.6.2-1
 _ZTVN5boost10lock_errorE@Base 2.6.2-1
 _ZTVN5boost16exception_detail10clone_baseE@Base 2.6.2-1
 _ZTVN5boost16exception_detail10clone_implINS0_19error_info_injectorINS_10lock_errorEEEEE@Base 2.6.2-1
 _ZTVN5boost16exception_detail19error_info_injectorINS_10lock_errorEEE@Base 2.6.2-1
 _ZTVN5boost16thread_exceptionE@Base 2.6.2-1
 _ZTVN5boost9exceptionE@Base 2.6.2-1
 _ZThn16_N5boost16exception_detail10clone_implINS0_19error_info_injectorINS_10lock_errorEEEED0Ev@Base 2.6.2-1
 _ZThn16_N5boost16exception_detail10clone_implINS0_19error_info_injectorINS_10lock_errorEEEED1Ev@Base 2.6.2-1
 _ZThn16_N5boost16exception_detail19error_info_injectorINS_10lock_errorEED0Ev@Base 2.6.2-1
 _ZThn16_N5boost16exception_detail19error_info_injectorINS_10lock_errorEED1Ev@Base 2.6.2-1
 _ZThn16_N8vpAROgre10keyPressedERKN3OIS8KeyEventE@Base 2.6.2-1
 _ZThn16_N8vpAROgre11keyReleasedERKN3OIS8KeyEventE@Base 2.6.2-1
 _ZThn16_N8vpAROgreD0Ev@Base 2.6.2-1
 _ZThn16_N8vpAROgreD1Ev@Base 2.6.2-1
 _ZThn2416_N19vpSimulatorViper850D0Ev@Base 2.6.2-1
 _ZThn2416_N19vpSimulatorViper850D1Ev@Base 2.6.2-1
 _ZThn56_N5boost16exception_detail10clone_implINS0_19error_info_injectorINS_10lock_errorEEEED0Ev@Base 2.6.2-1
 _ZThn56_N5boost16exception_detail10clone_implINS0_19error_info_injectorINS_10lock_errorEEEED1Ev@Base 2.6.2-1
 _ZThn56_NK5boost16exception_detail10clone_implINS0_19error_info_injectorINS_10lock_errorEEEE5cloneEv@Base 2.6.2-1
 _ZThn56_NK5boost16exception_detail10clone_implINS0_19error_info_injectorINS_10lock_errorEEEE7rethrowEv@Base 2.6.2-1
 _ZThn696_N16vpRobotSimulator4initEv@Base 2.6.2-1
 _ZThn696_N16vpRobotSimulatorD0Ev@Base 2.6.2-1
 _ZThn696_N16vpRobotSimulatorD1Ev@Base 2.6.2-1
 _ZThn696_N16vpSimulatorAfma611getPositionEN7vpRobot18vpControlFrameTypeER11vpColVector@Base 2.6.2-1
 _ZThn696_N16vpSimulatorAfma611setPositionEN7vpRobot18vpControlFrameTypeERK11vpColVector@Base 2.6.2-1
 _ZThn696_N16vpSimulatorAfma611setVelocityEN7vpRobot18vpControlFrameTypeERK11vpColVector@Base 2.6.2-1
 _ZThn696_N16vpSimulatorAfma613setRobotStateEN7vpRobot16vpRobotStateTypeE@Base 2.6.2-1
 _ZThn696_N16vpSimulatorAfma615getDisplacementEN7vpRobot18vpControlFrameTypeER11vpColVector@Base 2.6.2-1
 _ZThn696_N16vpSimulatorAfma621getCameraDisplacementER11vpColVector@Base 2.6.2-1
 _ZThn696_N16vpSimulatorAfma624getArticularDisplacementER11vpColVector@Base 2.6.2-1
 _ZThn696_N16vpSimulatorAfma64initEv@Base 2.6.2-1
 _ZThn696_N16vpSimulatorAfma67get_eJeER8vpMatrix@Base 2.6.2-1
 _ZThn696_N16vpSimulatorAfma67get_fJeER8vpMatrix@Base 2.6.2-1
 _ZThn696_N16vpSimulatorAfma6D0Ev@Base 2.6.2-1
 _ZThn696_N16vpSimulatorAfma6D1Ev@Base 2.6.2-1
 _ZThn696_N19vpSimulatorViper85011getPositionEN7vpRobot18vpControlFrameTypeER11vpColVector@Base 2.6.2-1
 _ZThn696_N19vpSimulatorViper85011setPositionEN7vpRobot18vpControlFrameTypeERK11vpColVector@Base 2.6.2-1
 _ZThn696_N19vpSimulatorViper85011setVelocityEN7vpRobot18vpControlFrameTypeERK11vpColVector@Base 2.6.2-1
 _ZThn696_N19vpSimulatorViper85013setRobotStateEN7vpRobot16vpRobotStateTypeE@Base 2.6.2-1
 _ZThn696_N19vpSimulatorViper85015getDisplacementEN7vpRobot18vpControlFrameTypeER11vpColVector@Base 2.6.2-1
 _ZThn696_N19vpSimulatorViper85021getCameraDisplacementER11vpColVector@Base 2.6.2-1
 _ZThn696_N19vpSimulatorViper85024getArticularDisplacementER11vpColVector@Base 2.6.2-1
 _ZThn696_N19vpSimulatorViper8504initEv@Base 2.6.2-1
 _ZThn696_N19vpSimulatorViper8507get_eJeER8vpMatrix@Base 2.6.2-1
 _ZThn696_N19vpSimulatorViper8507get_fJeER8vpMatrix@Base 2.6.2-1
 _ZThn696_N19vpSimulatorViper850D0Ev@Base 2.6.2-1
 _ZThn696_N19vpSimulatorViper850D1Ev@Base 2.6.2-1
 _ZThn8_N8vpAROgre12windowClosedEPN4Ogre12RenderWindowE@Base 2.6.2-1
 _ZThn8_N8vpAROgreD0Ev@Base 2.6.2-1
 _ZThn8_N8vpAROgreD1Ev@Base 2.6.2-1
 _ZlsRSoR13vpMomentBasic@Base 2.6.2-1
 _ZlsRSoR16vpMomentCentered@Base 2.6.2-1
 _ZlsRSoR7vpPoint@Base 2.6.2-1
 _ZlsRSoR8vpMeSite@Base 2.6.2-1
 _ZlsRSoRK11vpException@Base 2.6.2-1
 _ZlsRSoRK12vpMomentArea@Base 2.6.2-1
 _ZlsRSoRK13vpMomentAlpha@Base 2.6.2-1
 _ZlsRSoRK14vpAdaptiveGain@Base 2.6.2-1
 _ZlsRSoRK14vpMomentObject@Base 2.6.2-1
 _ZlsRSoRK15vpHistogramPeak@Base 2.6.2-1
 _ZlsRSoRK16vpAdaptativeGain@Base 2.6.2-1
 _ZlsRSoRK16vpHistogramValey@Base 2.6.2-1
 _ZlsRSoRK16vpMomentDatabase@Base 2.6.2-1
 _ZlsRSoRK16vpRotationMatrix@Base 2.6.2-1
 _ZlsRSoRK16vpRotationVector@Base 2.6.2-1
 _ZlsRSoRK18vpCameraParameters@Base 2.6.2-1
 _ZlsRSoRK18vpMomentCInvariant@Base 2.6.2-1
 _ZlsRSoRK21vpMomentGravityCenter@Base 2.6.2-1
 _ZlsRSoRK22vpMomentAreaNormalized@Base 2.6.2-1
 _ZlsRSoRK31vpMomentGravityCenterNormalized@Base 2.6.2-1
 _ZlsRSoRK7vpAfma4@Base 2.6.2-1
 _ZlsRSoRK7vpAfma6@Base 2.6.2-1
 _ZlsRSoRK7vpPtu46@Base 2.6.2-1
 _ZlsRSoRK7vpViper@Base 2.6.2-1
 _ZlsRSoRK8vpMatrix@Base 2.6.2-1
 _ZlsRSoRK8vpMoment@Base 2.6.2-1
 _ZlsRSoRK9vpBiclops@Base 2.6.2-1
 _ZmlRK12vpHomographyRK7vpPoint@Base 2.6.2-1
 _ZmlRK19vpHomogeneousMatrixRK7vpPoint@Base 2.6.2-1
 _ZmlRKdRK11vpColVector@Base 2.6.2-1
 _ZmlRKdRK6vpRGBa@Base 2.6.2-1
 _ZmlRKdRK8vpMatrix@Base 2.6.2-1
 add_rfstack@Base 2.6.2-1
 add_vwstack@Base 2.6.2-1
 clipping_Bound@Base 2.6.2-1
 close_clipping@Base 2.6.2-1
 close_display@Base 2.6.2-1
 close_keyword@Base 2.6.2-1
 close_lex@Base 2.6.2-1
 close_source@Base 2.6.2-1
 colors@Base 2.6.2-1
 cosin_to_angle@Base 2.6.2-1
 cosin_to_lut@Base 2.6.2-1
 fprintf_Position@Base 2.6.2-1
 fprintf_matrix@Base 2.6.2-1
 fprintf_rfstack@Base 2.6.2-1
 fprintf_vwstack@Base 2.6.2-1
 free_Bound@Base 2.6.2-1
 free_Bound_scene@Base 2.6.2-1
 free_huge_Bound@Base 2.6.2-1
 fscanf_Bound@Base 2.6.2-1
 fscanf_Face_list@Base 2.6.2-1
 fscanf_Index@Base 2.6.2-1
 fscanf_Point3f@Base 2.6.2-1
 fscanf_Point3f_list@Base 2.6.2-1
 fscanf_Position@Base 2.6.2-1
 fscanf_Remove@Base 2.6.2-1
 fscanf_Type@Base 2.6.2-1
 fscanf_Vector@Base 2.6.2-1
 fscanf_View_parameters@Base 2.6.2-1
 fscanf_float@Base 2.6.2-1
 fscanf_int@Base 2.6.2-1
 fscanf_string@Base 2.6.2-1
 get_rfstack@Base 2.6.2-1
 get_symbol@Base 2.6.2-1
 get_tmstack@Base 2.6.2-1
 get_vwstack@Base 2.6.2-1
 handlerProc1@Base 2.6.2-1
 handlerProc2@Base 2.6.2-1
 ident_matrix@Base 2.6.2-1
 keyword_tbl@Base 2.6.2-1
 lex@Base 2.6.2-1
 lex_errtbl@Base 2.6.2-1
 lexecho@Base 2.6.2-1
 lexerr@Base 2.6.2-1
 listpoint2i@Base 2.6.2-1
 load_rfstack@Base 2.6.2-1
 load_tmstack@Base 2.6.2-1
 load_vwstack@Base 2.6.2-1
 malloc_Bound@Base 2.6.2-1
 malloc_Bound_scene@Base 2.6.2-1
 malloc_huge_Bound@Base 2.6.2-1
 mycolumno@Base 2.6.2-1
 myfloat@Base 2.6.2-1
 myint@Base 2.6.2-1
 mylength@Base 2.6.2-1
 mylineno@Base 2.6.2-1
 mytext@Base 2.6.2-1
 norm_vector@Base 2.6.2-1
 open_clipping@Base 2.6.2-1
 open_display@Base 2.6.2-1
 open_keyword@Base 2.6.2-1
 open_lex@Base 2.6.2-1
 open_source@Base 2.6.2-1
 parser@Base 2.6.2-1
 plane_norme@Base 2.6.2-1
 point2i@Base 2.6.2-1
 point_3D_2D@Base 2.6.2-1
 point_3D_3D@Base 2.6.2-1
 point_3D_4D@Base 2.6.2-1
 point_matrix@Base 2.6.2-1
 pop_rfstack@Base 2.6.2-1
 pop_tmstack@Base 2.6.2-1
 pop_vwstack@Base 2.6.2-1
 poperr@Base 2.6.2-1
 popuperr@Base 2.6.2-1
 postleft_matrix@Base 2.6.2-1
 postmult3_matrix@Base 2.6.2-1
 postmult_matrix@Base 2.6.2-1
 postmult_tmstack@Base 2.6.2-1
 postrotate_tmstack@Base 2.6.2-1
 postscale_matrix@Base 2.6.2-1
 postscale_tmstack@Base 2.6.2-1
 posttrans_matrix@Base 2.6.2-1
 posttranslate_tmstack@Base 2.6.2-1
 premult3_matrix@Base 2.6.2-1
 premult_matrix@Base 2.6.2-1
 premult_tmstack@Base 2.6.2-1
 prerotate_tmstack@Base 2.6.2-1
 prescale_matrix@Base 2.6.2-1
 prescale_tmstack@Base 2.6.2-1
 pretrans_matrix@Base 2.6.2-1
 pretranslate_tmstack@Base 2.6.2-1
 push_rfstack@Base 2.6.2-1
 push_tmstack@Base 2.6.2-1
 push_vwstack@Base 2.6.2-1
 pusherr@Base 2.6.2-1
 rotate_vector@Base 2.6.2-1
 set_Bound_face_display@Base 2.6.2-1
 set_Point4f_code@Base 2.6.2-1
 set_parallel@Base 2.6.2-1
 set_perspective@Base 2.6.2-1
 skip_cmd@Base 2.6.2-1
 skip_keyword@Base 2.6.2-1
 sub_rfstack@Base 2.6.2-1
 swap_rfstack@Base 2.6.2-1
 swap_tmstack@Base 2.6.2-1
 swap_vwstack@Base 2.6.2-1
 transpose_matrix@Base 2.6.2-1
 unlex@Base 2.6.2-1
 upright_vector@Base 2.6.2-1
 where_is_Point4f@Base 2.6.2-1
 wireframe_Face@Base 2.6.2-1
